Archive member included       because of file (symbol)

/usr/local/openravenscar/lib/gcc-lib/sparc-ork-elf/2.8.1/adalib/libgnarl.a(a-reatim.o)
                              ./devices.o (ada__real_time__clock)
/usr/local/openravenscar/lib/gcc-lib/sparc-ork-elf/2.8.1/adalib/libgnarl.a(a-retide.o)
                              ./pulse_interrupt.o (ada__real_time__delays__delay_until)
/usr/local/openravenscar/lib/gcc-lib/sparc-ork-elf/2.8.1/adalib/libgnarl.a(s-interr.o)
                              b~main.o (system__interrupts___elabs)
/usr/local/openravenscar/lib/gcc-lib/sparc-ork-elf/2.8.1/adalib/libgnarl.a(s-osinte.o)
                              /usr/local/openravenscar/lib/gcc-lib/sparc-ork-elf/2.8.1/adalib/libgnarl.a(s-interr.o) (system__os_interface__attach_handler)
/usr/local/openravenscar/lib/gcc-lib/sparc-ork-elf/2.8.1/adalib/libgnarl.a(s-taprob.o)
                              ./objetos_protegidos.o (system__tasking__protected_objects__initialize_protection)
/usr/local/openravenscar/lib/gcc-lib/sparc-ork-elf/2.8.1/adalib/libgnarl.a(s-taprop.o)
                              /usr/local/openravenscar/lib/gcc-lib/sparc-ork-elf/2.8.1/adalib/libgnarl.a(a-retide.o) (system__task_primitives__operations__self)
/usr/local/openravenscar/lib/gcc-lib/sparc-ork-elf/2.8.1/adalib/libgnarl.a(s-tarest.o)
                              ./pulse_interrupt.o (system__tasking__restricted__stages__create_restricted_task)
/usr/local/openravenscar/lib/gcc-lib/sparc-ork-elf/2.8.1/adalib/libgnarl.a(s-tasdeb.o)
                              b~main.o (system__tasking__debug___elabs)
/usr/local/openravenscar/lib/gcc-lib/sparc-ork-elf/2.8.1/adalib/libgnarl.a(s-taskin.o)
                              /usr/local/openravenscar/lib/gcc-lib/sparc-ork-elf/2.8.1/adalib/libgnarl.a(s-tasdeb.o) (system__tasking__task_statesT)
/usr/local/openravenscar/lib/gcc-lib/sparc-ork-elf/2.8.1/adalib/libgnarl.a(s-taspri.o)
                              /usr/local/openravenscar/lib/gcc-lib/sparc-ork-elf/2.8.1/adalib/libgnarl.a(s-taskin.o) (system__task_primitives___init_proc)
/usr/local/openravenscar/lib/gcc-lib/sparc-ork-elf/2.8.1/adalib/libgnarl.a(s-tposen.o)
                              /usr/local/openravenscar/lib/gcc-lib/sparc-ork-elf/2.8.1/adalib/libgnarl.a(s-interr.o) (system__tasking__protected_objects__single_entry__protection_entryP)
/usr/local/openravenscar/lib/gcc-lib/sparc-ork-elf/2.8.1/adalib/libgnarl.a(kernel-interrupts.o)
                              /usr/local/openravenscar/lib/gcc-lib/sparc-ork-elf/2.8.1/adalib/libgnarl.a(s-osinte.o) (kernel_attach_interrupt_handler)
/usr/local/openravenscar/lib/gcc-lib/sparc-ork-elf/2.8.1/adalib/libgnarl.a(kernel-threads.o)
                              b~main.o (kernel__threads___elabs)
/usr/local/openravenscar/lib/gcc-lib/sparc-ork-elf/2.8.1/adalib/libgnarl.a(kernel-threads-atcb.o)
                              /usr/local/openravenscar/lib/gcc-lib/sparc-ork-elf/2.8.1/adalib/libgnarl.a(s-taprop.o) (kernel__threads__atcb__set_atcb)
/usr/local/openravenscar/lib/gcc-lib/sparc-ork-elf/2.8.1/adalib/libgnarl.a(kernel-threads-queues.o)
                              /usr/local/openravenscar/lib/gcc-lib/sparc-ork-elf/2.8.1/adalib/libgnarl.a(s-taprop.o) (running_thread)
/usr/local/openravenscar/lib/gcc-lib/sparc-ork-elf/2.8.1/adalib/libgnarl.a(kernel-threads-protection.o)
                              /usr/local/openravenscar/lib/gcc-lib/sparc-ork-elf/2.8.1/adalib/libgnarl.a(kernel-threads.o) (kernel__threads__protection__dispatch)
/usr/local/openravenscar/lib/gcc-lib/sparc-ork-elf/2.8.1/adalib/libgnarl.a(kernel-time.o)
                              /usr/local/openravenscar/lib/gcc-lib/sparc-ork-elf/2.8.1/adalib/libgnarl.a(s-taprop.o) (kernel_clock)
/usr/local/openravenscar/lib/gcc-lib/sparc-ork-elf/2.8.1/adalib/libgnarl.a(kernel-memory.o)
                              /usr/local/openravenscar/sparc-ork-elf/lib/ada_crt0.o (environment_stack)
/usr/local/openravenscar/lib/gcc-lib/sparc-ork-elf/2.8.1/adalib/libgnarl.a(kernel-cpu_primitives.o)
                              /usr/local/openravenscar/lib/gcc-lib/sparc-ork-elf/2.8.1/adalib/libgnarl.a(kernel-threads-protection.o) (kernel__cpu_primitives__context_switch)
/usr/local/openravenscar/lib/gcc-lib/sparc-ork-elf/2.8.1/adalib/libgnarl.a(kernel-peripherals-registers.o)
                              ./force_external_interrupt_2.o (kernel__peripherals__registers__test_control)
/usr/local/openravenscar/lib/gcc-lib/sparc-ork-elf/2.8.1/adalib/libgnarl.a(kernel-peripherals.o)
                              /usr/local/openravenscar/lib/gcc-lib/sparc-ork-elf/2.8.1/adalib/libgnarl.a(kernel-interrupts.o) (kernel__peripherals__to_vector)
/usr/local/openravenscar/lib/gcc-lib/sparc-ork-elf/2.8.1/adalib/libgnarl.a(kernel-serial_output.o)
                              ./devices.o (kernel__serial_output__put__2)
/usr/local/openravenscar/lib/gcc-lib/sparc-ork-elf/2.8.1/adalib/libgnarl.a(context.o)
                              /usr/local/openravenscar/sparc-ork-elf/lib/ada_crt0.o (context_trap)
/usr/local/openravenscar/lib/gcc-lib/sparc-ork-elf/2.8.1/adalib/libgnarl.a(install_handler.o)
                              /usr/local/openravenscar/sparc-ork-elf/lib/ada_crt0.o (FP_Save_Pending)
/usr/local/openravenscar/lib/gcc-lib/sparc-ork-elf/2.8.1/adalib/libgnarl.a(int_level.o)
                              /usr/local/openravenscar/lib/gcc-lib/sparc-ork-elf/2.8.1/adalib/libgnarl.a(kernel-threads-protection.o) (disable_interrupts)
/usr/local/openravenscar/lib/gcc-lib/sparc-ork-elf/2.8.1/adalib/libgnat.a(a-except.o)
                              b~main.o (ada__exceptions___elabs)
/usr/local/openravenscar/lib/gcc-lib/sparc-ork-elf/2.8.1/adalib/libgnat.a(a-filico.o)
                              b~main.o (ada__finalization__list_controller___elabs)
/usr/local/openravenscar/lib/gcc-lib/sparc-ork-elf/2.8.1/adalib/libgnat.a(a-finali.o)
                              /usr/local/openravenscar/lib/gcc-lib/sparc-ork-elf/2.8.1/adalib/libgnat.a(a-filico.o) (ada__finalization__limited_controlledP)
/usr/local/openravenscar/lib/gcc-lib/sparc-ork-elf/2.8.1/adalib/libgnat.a(a-ioexce.o)
                              b~main.o (ada__io_exceptions___elabs)
/usr/local/openravenscar/lib/gcc-lib/sparc-ork-elf/2.8.1/adalib/libgnat.a(a-nuelfu.o)
                              ./workload.o (ada__numerics__elementary_functions__sqrt)
/usr/local/openravenscar/lib/gcc-lib/sparc-ork-elf/2.8.1/adalib/libgnat.a(a-numeri.o)
                              /usr/local/openravenscar/lib/gcc-lib/sparc-ork-elf/2.8.1/adalib/libgnat.a(a-nuelfu.o) (ada__numerics__argument_error)
/usr/local/openravenscar/lib/gcc-lib/sparc-ork-elf/2.8.1/adalib/libgnat.a(a-stream.o)
                              b~main.o (ada__streams___elabs)
/usr/local/openravenscar/lib/gcc-lib/sparc-ork-elf/2.8.1/adalib/libgnat.a(a-tags.o)
                              b~main.o (ada__tags___elabs)
/usr/local/openravenscar/lib/gcc-lib/sparc-ork-elf/2.8.1/adalib/libgnat.a(g-except.o)
                              b~main.o (gnat__exceptions___elabs)
/usr/local/openravenscar/lib/gcc-lib/sparc-ork-elf/2.8.1/adalib/libgnat.a(g-hesora.o)
                              /usr/local/openravenscar/lib/gcc-lib/sparc-ork-elf/2.8.1/adalib/libgnat.a(a-except.o) (gnat__heap_sort_a__sort)
/usr/local/openravenscar/lib/gcc-lib/sparc-ork-elf/2.8.1/adalib/libgnat.a(i-c.o)
                              b~main.o (interfaces__c___elabs)
/usr/local/openravenscar/lib/gcc-lib/sparc-ork-elf/2.8.1/adalib/libgnat.a(s-arit64.o)
                              /usr/local/openravenscar/lib/gcc-lib/sparc-ork-elf/2.8.1/adalib/libgnarl.a(a-reatim.o) (system__arith_64__scaled_divide)
/usr/local/openravenscar/lib/gcc-lib/sparc-ork-elf/2.8.1/adalib/libgnat.a(s-except.o)
                              /usr/local/openravenscar/lib/gcc-lib/sparc-ork-elf/2.8.1/adalib/libgnat.a(a-except.o) (system__exceptions__others_dummy_exception)
/usr/local/openravenscar/lib/gcc-lib/sparc-ork-elf/2.8.1/adalib/libgnat.a(s-exctab.o)
                              /usr/local/openravenscar/lib/gcc-lib/sparc-ork-elf/2.8.1/adalib/libgnat.a(a-except.o) (system__exception_table__internal_exception)
/usr/local/openravenscar/lib/gcc-lib/sparc-ork-elf/2.8.1/adalib/libgnat.a(s-exnflt.o)
                              /usr/local/openravenscar/lib/gcc-lib/sparc-ork-elf/2.8.1/adalib/libgnat.a(a-nuelfu.o) (system__exn_flt__exn_float)
/usr/local/openravenscar/lib/gcc-lib/sparc-ork-elf/2.8.1/adalib/libgnat.a(s-fatflt.o)
                              /usr/local/openravenscar/lib/gcc-lib/sparc-ork-elf/2.8.1/adalib/libgnat.a(a-nuelfu.o) (system__fat_flt__fat_float__truncation)
/usr/local/openravenscar/lib/gcc-lib/sparc-ork-elf/2.8.1/adalib/libgnat.a(s-finimp.o)
                              /usr/local/openravenscar/lib/gcc-lib/sparc-ork-elf/2.8.1/adalib/libgnarl.a(s-tposen.o) (system__finalization_implementation__global_final_list)
/usr/local/openravenscar/lib/gcc-lib/sparc-ork-elf/2.8.1/adalib/libgnat.a(s-finroo.o)
                              /usr/local/openravenscar/lib/gcc-lib/sparc-ork-elf/2.8.1/adalib/libgnat.a(a-finali.o) (system__finalization_root__root_controlledP)
/usr/local/openravenscar/lib/gcc-lib/sparc-ork-elf/2.8.1/adalib/libgnat.a(s-imgint.o)
                              ./devices.o (system__img_int__image_integer)
/usr/local/openravenscar/lib/gcc-lib/sparc-ork-elf/2.8.1/adalib/libgnat.a(s-imgrea.o)
                              ./devices.o (system__img_real__image_ordinary_fixed_point)
/usr/local/openravenscar/lib/gcc-lib/sparc-ork-elf/2.8.1/adalib/libgnat.a(s-imguns.o)
                              /usr/local/openravenscar/lib/gcc-lib/sparc-ork-elf/2.8.1/adalib/libgnat.a(s-imgrea.o) (system__img_uns__set_image_unsigned)
/usr/local/openravenscar/lib/gcc-lib/sparc-ork-elf/2.8.1/adalib/libgnat.a(s-mastop.o)
                              /usr/local/openravenscar/lib/gcc-lib/sparc-ork-elf/2.8.1/adalib/libgnat.a(a-except.o) (system__machine_state_operations__allocate_machine_state)
/usr/local/openravenscar/lib/gcc-lib/sparc-ork-elf/2.8.1/adalib/libgnat.a(s-parame.o)
                              /usr/local/openravenscar/lib/gcc-lib/sparc-ork-elf/2.8.1/adalib/libgnarl.a(s-taprop.o) (system__parameters__default_stack_size)
/usr/local/openravenscar/lib/gcc-lib/sparc-ork-elf/2.8.1/adalib/libgnat.a(s-powtab.o)
                              /usr/local/openravenscar/lib/gcc-lib/sparc-ork-elf/2.8.1/adalib/libgnat.a(s-imgrea.o) (system__powten_table__powten)
/usr/local/openravenscar/lib/gcc-lib/sparc-ork-elf/2.8.1/adalib/libgnat.a(s-secsta.o)
                              /usr/local/openravenscar/lib/gcc-lib/sparc-ork-elf/2.8.1/adalib/libgnarl.a(s-tasdeb.o) (system__secondary_stack__ss_allocate)
/usr/local/openravenscar/lib/gcc-lib/sparc-ork-elf/2.8.1/adalib/libgnat.a(s-sopco3.o)
                              /usr/local/openravenscar/lib/gcc-lib/sparc-ork-elf/2.8.1/adalib/libgnarl.a(s-interr.o) (system__string_ops_concat_3__str_concat_3)
/usr/local/openravenscar/lib/gcc-lib/sparc-ork-elf/2.8.1/adalib/libgnat.a(s-stache.o)
                              b~main.o (system__stack_checking___elabs)
/usr/local/openravenscar/lib/gcc-lib/sparc-ork-elf/2.8.1/adalib/libgnat.a(s-stalib.o)
                              /usr/local/openravenscar/lib/gcc-lib/sparc-ork-elf/2.8.1/adalib/libgnat.a(a-except.o) (constraint_error)
/usr/local/openravenscar/lib/gcc-lib/sparc-ork-elf/2.8.1/adalib/libgnat.a(s-stoele.o)
                              /usr/local/openravenscar/lib/gcc-lib/sparc-ork-elf/2.8.1/adalib/libgnat.a(a-except.o) (system__storage_elements__to_address)
/usr/local/openravenscar/lib/gcc-lib/sparc-ork-elf/2.8.1/adalib/libgnat.a(s-stratt.o)
                              /usr/local/openravenscar/lib/gcc-lib/sparc-ork-elf/2.8.1/adalib/libgnat.a(s-finimp.o) (system__stream_attributes__i_as)
/usr/local/openravenscar/lib/gcc-lib/sparc-ork-elf/2.8.1/adalib/libgnat.a(s-strops.o)
                              /usr/local/openravenscar/lib/gcc-lib/sparc-ork-elf/2.8.1/adalib/libgnat.a(a-tags.o) (system__string_ops__str_concat)
/usr/local/openravenscar/lib/gcc-lib/sparc-ork-elf/2.8.1/adalib/libgnat.a(s-soflin.o)
                              /usr/local/openravenscar/lib/gcc-lib/sparc-ork-elf/2.8.1/adalib/libgnat.a(a-except.o) (system__soft_links__abort_defer)
/usr/local/openravenscar/lib/gcc-lib/sparc-ork-elf/2.8.1/adalib/libgnat.a(s-traceb.o)
                              /usr/local/openravenscar/lib/gcc-lib/sparc-ork-elf/2.8.1/adalib/libgnat.a(a-except.o) (system__traceback__allocate_machine_state)
/usr/local/openravenscar/lib/gcc-lib/sparc-ork-elf/2.8.1/adalib/libgnat.a(a-argv.o)
                              b~main.o (gnat_argc)
/usr/local/openravenscar/lib/gcc-lib/sparc-ork-elf/2.8.1/adalib/libgnat.a(a-cio.o)
                              /usr/local/openravenscar/lib/gcc-lib/sparc-ork-elf/2.8.1/adalib/libgnarl.a(s-tasdeb.o) (put_char)
/usr/local/openravenscar/lib/gcc-lib/sparc-ork-elf/2.8.1/adalib/libgnat.a(a-exit.o)
                              b~main.o (gnat_exit_status)
/usr/local/openravenscar/lib/gcc-lib/sparc-ork-elf/2.8.1/adalib/libgnat.a(a-raise.o)
                              /usr/local/openravenscar/lib/gcc-lib/sparc-ork-elf/2.8.1/adalib/libgnat.a(a-except.o) (_gnat_builtin_longjmp)
/usr/local/openravenscar/lib/gcc-lib/sparc-ork-elf/2.8.1/adalib/libgnat.a(a-init.o)
                              /usr/local/openravenscar/lib/gcc-lib/sparc-ork-elf/2.8.1/adalib/libgnarl.a(s-taskin.o) (__gl_main_priority)
/usr/local/openravenscar/lib/gcc-lib/sparc-ork-elf/2.8.1/adalib/libgnat.a(a-final.o)
                              b~main.o (__gnat_finalize)
/usr/local/openravenscar/lib/gcc-lib/sparc-ork-elf/2.8.1/adalib/libgnat.a(s-fatllf.o)
                              /usr/local/openravenscar/lib/gcc-lib/sparc-ork-elf/2.8.1/adalib/libgnat.a(s-imgrea.o) (system__fat_llf__fat_long_long_float__truncation)
/usr/local/openravenscar/lib/gcc-lib/sparc-ork-elf/2.8.1/adalib/libgnat.a(s-imgllu.o)
                              /usr/local/openravenscar/lib/gcc-lib/sparc-ork-elf/2.8.1/adalib/libgnat.a(s-imgrea.o) (system__img_llu__set_image_long_long_unsigned)
/usr/local/openravenscar/lib/gcc-lib/sparc-ork-elf/2.8.1/adalib/libgnat.a(a-adaint.o)
                              /usr/local/openravenscar/lib/gcc-lib/sparc-ork-elf/2.8.1/adalib/libgnat.a(a-raise.o) (os_exit)
/usr/local/openravenscar/sparc-ork-elf/lib/libm.a(s_atan.o)
                              /usr/local/openravenscar/lib/gcc-lib/sparc-ork-elf/2.8.1/adalib/libgnat.a(a-nuelfu.o) (atan)
/usr/local/openravenscar/sparc-ork-elf/lib/libm.a(s_cos.o)
                              /usr/local/openravenscar/lib/gcc-lib/sparc-ork-elf/2.8.1/adalib/libgnat.a(a-nuelfu.o) (cos)
/usr/local/openravenscar/sparc-ork-elf/lib/libm.a(s_fabs.o)
                              /usr/local/openravenscar/sparc-ork-elf/lib/libm.a(s_atan.o) (fabs)
/usr/local/openravenscar/sparc-ork-elf/lib/libm.a(s_sin.o)
                              /usr/local/openravenscar/lib/gcc-lib/sparc-ork-elf/2.8.1/adalib/libgnat.a(a-nuelfu.o) (sin)
/usr/local/openravenscar/sparc-ork-elf/lib/libm.a(s_tan.o)
                              /usr/local/openravenscar/lib/gcc-lib/sparc-ork-elf/2.8.1/adalib/libgnat.a(a-nuelfu.o) (tan)
/usr/local/openravenscar/sparc-ork-elf/lib/libm.a(s_tanh.o)
                              /usr/local/openravenscar/lib/gcc-lib/sparc-ork-elf/2.8.1/adalib/libgnat.a(a-nuelfu.o) (tanh)
/usr/local/openravenscar/sparc-ork-elf/lib/libm.a(w_acos.o)
                              /usr/local/openravenscar/lib/gcc-lib/sparc-ork-elf/2.8.1/adalib/libgnat.a(a-nuelfu.o) (acos)
/usr/local/openravenscar/sparc-ork-elf/lib/libm.a(w_asin.o)
                              /usr/local/openravenscar/lib/gcc-lib/sparc-ork-elf/2.8.1/adalib/libgnat.a(a-nuelfu.o) (asin)
/usr/local/openravenscar/sparc-ork-elf/lib/libm.a(w_exp.o)
                              /usr/local/openravenscar/lib/gcc-lib/sparc-ork-elf/2.8.1/adalib/libgnat.a(a-nuelfu.o) (exp)
/usr/local/openravenscar/sparc-ork-elf/lib/libm.a(w_log.o)
                              /usr/local/openravenscar/lib/gcc-lib/sparc-ork-elf/2.8.1/adalib/libgnat.a(a-nuelfu.o) (log)
/usr/local/openravenscar/sparc-ork-elf/lib/libm.a(w_pow.o)
                              /usr/local/openravenscar/lib/gcc-lib/sparc-ork-elf/2.8.1/adalib/libgnat.a(a-nuelfu.o) (pow)
/usr/local/openravenscar/sparc-ork-elf/lib/libm.a(w_sqrt.o)
                              /usr/local/openravenscar/lib/gcc-lib/sparc-ork-elf/2.8.1/adalib/libgnat.a(a-nuelfu.o) (sqrt)
/usr/local/openravenscar/sparc-ork-elf/lib/libm.a(e_acos.o)
                              /usr/local/openravenscar/sparc-ork-elf/lib/libm.a(w_acos.o) (__ieee754_acos)
/usr/local/openravenscar/sparc-ork-elf/lib/libm.a(e_asin.o)
                              /usr/local/openravenscar/sparc-ork-elf/lib/libm.a(w_asin.o) (__ieee754_asin)
/usr/local/openravenscar/sparc-ork-elf/lib/libm.a(e_exp.o)
                              /usr/local/openravenscar/sparc-ork-elf/lib/libm.a(w_exp.o) (__ieee754_exp)
/usr/local/openravenscar/sparc-ork-elf/lib/libm.a(e_log.o)
                              /usr/local/openravenscar/sparc-ork-elf/lib/libm.a(w_log.o) (__ieee754_log)
/usr/local/openravenscar/sparc-ork-elf/lib/libm.a(e_pow.o)
                              /usr/local/openravenscar/sparc-ork-elf/lib/libm.a(w_pow.o) (__ieee754_pow)
/usr/local/openravenscar/sparc-ork-elf/lib/libm.a(e_rem_pio2.o)
                              /usr/local/openravenscar/sparc-ork-elf/lib/libm.a(s_cos.o) (__ieee754_rem_pio2)
/usr/local/openravenscar/sparc-ork-elf/lib/libm.a(e_sqrt.o)
                              /usr/local/openravenscar/sparc-ork-elf/lib/libm.a(w_sqrt.o) (__ieee754_sqrt)
/usr/local/openravenscar/sparc-ork-elf/lib/libm.a(k_cos.o)
                              /usr/local/openravenscar/sparc-ork-elf/lib/libm.a(s_cos.o) (__kernel_cos)
/usr/local/openravenscar/sparc-ork-elf/lib/libm.a(k_rem_pio2.o)
                              /usr/local/openravenscar/sparc-ork-elf/lib/libm.a(e_rem_pio2.o) (__kernel_rem_pio2)
/usr/local/openravenscar/sparc-ork-elf/lib/libm.a(k_sin.o)
                              /usr/local/openravenscar/sparc-ork-elf/lib/libm.a(s_cos.o) (__kernel_sin)
/usr/local/openravenscar/sparc-ork-elf/lib/libm.a(k_tan.o)
                              /usr/local/openravenscar/sparc-ork-elf/lib/libm.a(s_tan.o) (__kernel_tan)
/usr/local/openravenscar/sparc-ork-elf/lib/libm.a(s_expm1.o)
                              /usr/local/openravenscar/sparc-ork-elf/lib/libm.a(s_tanh.o) (expm1)
/usr/local/openravenscar/sparc-ork-elf/lib/libm.a(s_finite.o)
                              /usr/local/openravenscar/sparc-ork-elf/lib/libm.a(w_exp.o) (finite)
/usr/local/openravenscar/sparc-ork-elf/lib/libm.a(s_floor.o)
                              /usr/local/openravenscar/sparc-ork-elf/lib/libm.a(k_rem_pio2.o) (floor)
/usr/local/openravenscar/sparc-ork-elf/lib/libm.a(s_infconst.o)
                              /usr/local/openravenscar/sparc-ork-elf/lib/libm.a(w_exp.o) (__infinity)
/usr/local/openravenscar/sparc-ork-elf/lib/libm.a(s_isnan.o)
                              /usr/local/openravenscar/sparc-ork-elf/lib/libm.a(w_acos.o) (isnan)
/usr/local/openravenscar/sparc-ork-elf/lib/libm.a(s_lib_ver.o)
                              /usr/local/openravenscar/sparc-ork-elf/lib/libm.a(w_acos.o) (__fdlib_version)
/usr/local/openravenscar/sparc-ork-elf/lib/libm.a(s_matherr.o)
                              /usr/local/openravenscar/sparc-ork-elf/lib/libm.a(w_acos.o) (matherr)
/usr/local/openravenscar/sparc-ork-elf/lib/libm.a(s_rint.o)
                              /usr/local/openravenscar/sparc-ork-elf/lib/libm.a(w_pow.o) (rint)
/usr/local/openravenscar/sparc-ork-elf/lib/libm.a(s_scalbn.o)
                              /usr/local/openravenscar/sparc-ork-elf/lib/libm.a(e_pow.o) (scalbn)
/usr/local/openravenscar/sparc-ork-elf/lib/libm.a(s_copysign.o)
                              /usr/local/openravenscar/sparc-ork-elf/lib/libm.a(s_scalbn.o) (copysign)
/usr/local/openravenscar/lib/gcc-lib/sparc-ork-elf/2.8.1/libgcc.a(__dummy.o)
                              /usr/local/openravenscar/lib/gcc-lib/sparc-ork-elf/2.8.1/adalib/libgnat.a(a-raise.o) (__dummy)
/usr/local/openravenscar/lib/gcc-lib/sparc-ork-elf/2.8.1/libgcc.a(_ashldi3.o)
                              /usr/local/openravenscar/lib/gcc-lib/sparc-ork-elf/2.8.1/adalib/libgnat.a(s-arit64.o) (__ashldi3)
/usr/local/openravenscar/lib/gcc-lib/sparc-ork-elf/2.8.1/libgcc.a(_cmpdi2.o)
                              /usr/local/openravenscar/lib/gcc-lib/sparc-ork-elf/2.8.1/adalib/libgnarl.a(a-reatim.o) (__cmpdi2)
/usr/local/openravenscar/lib/gcc-lib/sparc-ork-elf/2.8.1/libgcc.a(_divdi3.o)
                              ./devices.o (__divdi3)
/usr/local/openravenscar/lib/gcc-lib/sparc-ork-elf/2.8.1/libgcc.a(_divsi3.o)
                              /usr/local/openravenscar/lib/gcc-lib/sparc-ork-elf/2.8.1/adalib/libgnarl.a(s-tasdeb.o) (udiv)
/usr/local/openravenscar/lib/gcc-lib/sparc-ork-elf/2.8.1/libgcc.a(_fixsfdi.o)
                              /usr/local/openravenscar/lib/gcc-lib/sparc-ork-elf/2.8.1/adalib/libgnat.a(a-nuelfu.o) (__fixsfdi)
/usr/local/openravenscar/lib/gcc-lib/sparc-ork-elf/2.8.1/libgcc.a(_fixunsdfdi.o)
                              /usr/local/openravenscar/lib/gcc-lib/sparc-ork-elf/2.8.1/adalib/libgnat.a(s-imgrea.o) (__fixunsdfdi)
/usr/local/openravenscar/lib/gcc-lib/sparc-ork-elf/2.8.1/libgcc.a(_fixunssfdi.o)
                              /usr/local/openravenscar/lib/gcc-lib/sparc-ork-elf/2.8.1/libgcc.a(_fixsfdi.o) (__fixunssfdi)
/usr/local/openravenscar/lib/gcc-lib/sparc-ork-elf/2.8.1/libgcc.a(_floatdidf.o)
                              ./tools.o (__floatdidf)
/usr/local/openravenscar/lib/gcc-lib/sparc-ork-elf/2.8.1/libgcc.a(_floatdisf.o)
                              /usr/local/openravenscar/lib/gcc-lib/sparc-ork-elf/2.8.1/adalib/libgnat.a(a-nuelfu.o) (__floatdisf)
/usr/local/openravenscar/lib/gcc-lib/sparc-ork-elf/2.8.1/libgcc.a(_lshrdi3.o)
                              /usr/local/openravenscar/lib/gcc-lib/sparc-ork-elf/2.8.1/adalib/libgnat.a(s-arit64.o) (__lshrdi3)
/usr/local/openravenscar/lib/gcc-lib/sparc-ork-elf/2.8.1/libgcc.a(_modsi3.o)
                              /usr/local/openravenscar/lib/gcc-lib/sparc-ork-elf/2.8.1/adalib/libgnarl.a(s-tasdeb.o) (urem)
/usr/local/openravenscar/lib/gcc-lib/sparc-ork-elf/2.8.1/libgcc.a(_muldi3.o)
                              /usr/local/openravenscar/lib/gcc-lib/sparc-ork-elf/2.8.1/adalib/libgnarl.a(a-reatim.o) (__muldi3)
/usr/local/openravenscar/lib/gcc-lib/sparc-ork-elf/2.8.1/libgcc.a(_mulsi3.o)
                              ./sensores.o (umul)
/usr/local/openravenscar/lib/gcc-lib/sparc-ork-elf/2.8.1/libgcc.a(_udivdi3.o)
                              /usr/local/openravenscar/lib/gcc-lib/sparc-ork-elf/2.8.1/adalib/libgnat.a(s-arit64.o) (__udivdi3)
/usr/local/openravenscar/lib/gcc-lib/sparc-ork-elf/2.8.1/libgcc.a(_umoddi3.o)
                              /usr/local/openravenscar/lib/gcc-lib/sparc-ork-elf/2.8.1/adalib/libgnat.a(s-arit64.o) (__umoddi3)
/usr/local/openravenscar/lib/gcc-lib/sparc-ork-elf/2.8.1/libgcc.a(frame.o)
                              /usr/local/openravenscar/lib/gcc-lib/sparc-ork-elf/2.8.1/adalib/libgnat.a(a-init.o) (__frame_state_for)
/usr/local/openravenscar/sparc-ork-elf/lib/libc.a(abort.o)
                              /usr/local/openravenscar/lib/gcc-lib/sparc-ork-elf/2.8.1/adalib/libgnat.a(a-init.o) (abort)
/usr/local/openravenscar/sparc-ork-elf/lib/libc.a(atoi.o)
                              /usr/local/openravenscar/lib/gcc-lib/sparc-ork-elf/2.8.1/adalib/libgnat.a(s-stache.o) (atoi)
/usr/local/openravenscar/sparc-ork-elf/lib/libc.a(errno.o)
                              /usr/local/openravenscar/sparc-ork-elf/lib/libm.a(w_acos.o) (__errno)
/usr/local/openravenscar/sparc-ork-elf/lib/libc.a(exit.o)
                              /usr/local/openravenscar/lib/gcc-lib/sparc-ork-elf/2.8.1/adalib/libgnat.a(a-adaint.o) (exit)
/usr/local/openravenscar/sparc-ork-elf/lib/libc.a(fputc.o)
                              /usr/local/openravenscar/lib/gcc-lib/sparc-ork-elf/2.8.1/adalib/libgnat.a(a-cio.o) (fputc)
/usr/local/openravenscar/sparc-ork-elf/lib/libc.a(getenv.o)
                              /usr/local/openravenscar/lib/gcc-lib/sparc-ork-elf/2.8.1/adalib/libgnat.a(s-stache.o) (getenv)
/usr/local/openravenscar/sparc-ork-elf/lib/libc.a(getenv_r.o)
                              /usr/local/openravenscar/sparc-ork-elf/lib/libc.a(getenv.o) (_findenv_r)
/usr/local/openravenscar/sparc-ork-elf/lib/libc.a(gmtime.o)
                              /usr/local/openravenscar/lib/gcc-lib/sparc-ork-elf/2.8.1/adalib/libgnat.a(a-adaint.o) (gmtime)
/usr/local/openravenscar/sparc-ork-elf/lib/libc.a(impure.o)
                              /usr/local/openravenscar/lib/gcc-lib/sparc-ork-elf/2.8.1/adalib/libgnat.a(a-cio.o) (_impure_ptr)
/usr/local/openravenscar/sparc-ork-elf/lib/libc.a(lcltime.o)
                              /usr/local/openravenscar/sparc-ork-elf/lib/libc.a(gmtime.o) (localtime)
/usr/local/openravenscar/sparc-ork-elf/lib/libc.a(lcltime_r.o)
                              /usr/local/openravenscar/sparc-ork-elf/lib/libc.a(lcltime.o) (localtime_r)
/usr/local/openravenscar/sparc-ork-elf/lib/libc.a(malloc.o)
                              /usr/local/openravenscar/lib/gcc-lib/sparc-ork-elf/2.8.1/adalib/libgnat.a(a-raise.o) (malloc)
/usr/local/openravenscar/sparc-ork-elf/lib/libc.a(mallocr.o)
                              /usr/local/openravenscar/sparc-ork-elf/lib/libc.a(malloc.o) (_malloc_r)
/usr/local/openravenscar/sparc-ork-elf/lib/libc.a(memcmp.o)
                              /usr/local/openravenscar/lib/gcc-lib/sparc-ork-elf/2.8.1/adalib/libgnarl.a(s-interr.o) (memcmp)
/usr/local/openravenscar/sparc-ork-elf/lib/libc.a(memcpy.o)
                              ./devices.o (memcpy)
/usr/local/openravenscar/sparc-ork-elf/lib/libc.a(memset.o)
                              /usr/local/openravenscar/lib/gcc-lib/sparc-ork-elf/2.8.1/libgcc.a(frame.o) (memset)
/usr/local/openravenscar/sparc-ork-elf/lib/libc.a(mlock.o)
                              /usr/local/openravenscar/sparc-ork-elf/lib/libc.a(mallocr.o) (__malloc_lock)
/usr/local/openravenscar/sparc-ork-elf/lib/libc.a(printf.o)
                              /usr/local/openravenscar/lib/gcc-lib/sparc-ork-elf/2.8.1/adalib/libgnat.a(a-cio.o) (printf)
/usr/local/openravenscar/sparc-ork-elf/lib/libc.a(realloc.o)
                              /usr/local/openravenscar/lib/gcc-lib/sparc-ork-elf/2.8.1/adalib/libgnat.a(a-raise.o) (realloc)
/usr/local/openravenscar/sparc-ork-elf/lib/libc.a(reallocr.o)
                              /usr/local/openravenscar/sparc-ork-elf/lib/libc.a(realloc.o) (_realloc_r)
/usr/local/openravenscar/sparc-ork-elf/lib/libc.a(rget.o)
                              /usr/local/openravenscar/lib/gcc-lib/sparc-ork-elf/2.8.1/adalib/libgnat.a(a-cio.o) (__srget)
/usr/local/openravenscar/sparc-ork-elf/lib/libc.a(sbrkr.o)
                              /usr/local/openravenscar/sparc-ork-elf/lib/libc.a(mallocr.o) (_sbrk_r)
/usr/local/openravenscar/sparc-ork-elf/lib/libc.a(scanf.o)
                              /usr/local/openravenscar/lib/gcc-lib/sparc-ork-elf/2.8.1/adalib/libgnat.a(a-cio.o) (scanf)
/usr/local/openravenscar/sparc-ork-elf/lib/libc.a(signal.o)
                              /usr/local/openravenscar/sparc-ork-elf/lib/libc.a(abort.o) (raise)
/usr/local/openravenscar/sparc-ork-elf/lib/libc.a(signalr.o)
                              /usr/local/openravenscar/sparc-ork-elf/lib/libc.a(signal.o) (_kill_r)
/usr/local/openravenscar/sparc-ork-elf/lib/libc.a(sprintf.o)
                              /usr/local/openravenscar/lib/gcc-lib/sparc-ork-elf/2.8.1/adalib/libgnat.a(a-adaint.o) (sprintf)
/usr/local/openravenscar/sparc-ork-elf/lib/libc.a(strcat.o)
                              /usr/local/openravenscar/lib/gcc-lib/sparc-ork-elf/2.8.1/adalib/libgnat.a(a-adaint.o) (strcat)
/usr/local/openravenscar/sparc-ork-elf/lib/libc.a(strcmp.o)
                              /usr/local/openravenscar/lib/gcc-lib/sparc-ork-elf/2.8.1/libgcc.a(frame.o) (strcmp)
/usr/local/openravenscar/sparc-ork-elf/lib/libc.a(strcpy.o)
                              /usr/local/openravenscar/lib/gcc-lib/sparc-ork-elf/2.8.1/adalib/libgnat.a(a-adaint.o) (strcpy)
/usr/local/openravenscar/sparc-ork-elf/lib/libc.a(strlen.o)
                              /usr/local/openravenscar/lib/gcc-lib/sparc-ork-elf/2.8.1/adalib/libgnat.a(a-argv.o) (strlen)
/usr/local/openravenscar/sparc-ork-elf/lib/libc.a(strncmp.o)
                              /usr/local/openravenscar/sparc-ork-elf/lib/libc.a(getenv_r.o) (strncmp)
/usr/local/openravenscar/sparc-ork-elf/lib/libc.a(strncpy.o)
                              /usr/local/openravenscar/lib/gcc-lib/sparc-ork-elf/2.8.1/adalib/libgnat.a(a-argv.o) (strncpy)
/usr/local/openravenscar/sparc-ork-elf/lib/libc.a(strstr.o)
                              /usr/local/openravenscar/lib/gcc-lib/sparc-ork-elf/2.8.1/adalib/libgnat.a(a-adaint.o) (strstr)
/usr/local/openravenscar/sparc-ork-elf/lib/libc.a(strtol.o)
                              /usr/local/openravenscar/sparc-ork-elf/lib/libc.a(atoi.o) (strtol)
/usr/local/openravenscar/sparc-ork-elf/lib/libc.a(vfprintf.o)
                              /usr/local/openravenscar/sparc-ork-elf/lib/libc.a(printf.o) (vfprintf)
/usr/local/openravenscar/sparc-ork-elf/lib/libc.a(vfscanf.o)
                              /usr/local/openravenscar/sparc-ork-elf/lib/libc.a(scanf.o) (__svfscanf)
/usr/local/openravenscar/sparc-ork-elf/lib/libc.a(wbuf.o)
                              /usr/local/openravenscar/lib/gcc-lib/sparc-ork-elf/2.8.1/adalib/libgnat.a(a-cio.o) (__swbuf)
/usr/local/openravenscar/sparc-ork-elf/lib/libc.a(wsetup.o)
                              /usr/local/openravenscar/sparc-ork-elf/lib/libc.a(vfprintf.o) (__swsetup)
/usr/local/openravenscar/sparc-ork-elf/lib/libc.a(atof.o)
                              /usr/local/openravenscar/sparc-ork-elf/lib/libc.a(vfscanf.o) (atof)
/usr/local/openravenscar/sparc-ork-elf/lib/libc.a(ctype_.o)
                              /usr/local/openravenscar/sparc-ork-elf/lib/libc.a(strtol.o) (_ctype_)
/usr/local/openravenscar/sparc-ork-elf/lib/libc.a(dtoa.o)
                              /usr/local/openravenscar/sparc-ork-elf/lib/libc.a(vfprintf.o) (_dtoa_r)
/usr/local/openravenscar/sparc-ork-elf/lib/libc.a(environ.o)
                              /usr/local/openravenscar/sparc-ork-elf/lib/libc.a(getenv_r.o) (environ)
/usr/local/openravenscar/sparc-ork-elf/lib/libc.a(envlock.o)
                              /usr/local/openravenscar/sparc-ork-elf/lib/libc.a(getenv_r.o) (__env_lock)
/usr/local/openravenscar/sparc-ork-elf/lib/libc.a(fflush.o)
                              /usr/local/openravenscar/sparc-ork-elf/lib/libc.a(vfprintf.o) (fflush)
/usr/local/openravenscar/sparc-ork-elf/lib/libc.a(findfp.o)
                              /usr/local/openravenscar/sparc-ork-elf/lib/libc.a(vfprintf.o) (__sinit)
/usr/local/openravenscar/sparc-ork-elf/lib/libc.a(fread.o)
                              /usr/local/openravenscar/sparc-ork-elf/lib/libc.a(vfscanf.o) (fread)
/usr/local/openravenscar/sparc-ork-elf/lib/libc.a(freer.o)
                              /usr/local/openravenscar/sparc-ork-elf/lib/libc.a(malloc.o) (_free_r)
/usr/local/openravenscar/sparc-ork-elf/lib/libc.a(fvwrite.o)
                              /usr/local/openravenscar/sparc-ork-elf/lib/libc.a(vfprintf.o) (__sfvwrite)
/usr/local/openravenscar/sparc-ork-elf/lib/libc.a(fwalk.o)
                              /usr/local/openravenscar/sparc-ork-elf/lib/libc.a(fflush.o) (_fwalk)
/usr/local/openravenscar/sparc-ork-elf/lib/libc.a(locale.o)
                              /usr/local/openravenscar/sparc-ork-elf/lib/libc.a(vfprintf.o) (__mb_cur_max)
/usr/local/openravenscar/sparc-ork-elf/lib/libc.a(makebuf.o)
                              /usr/local/openravenscar/sparc-ork-elf/lib/libc.a(wsetup.o) (__smakebuf)
/usr/local/openravenscar/sparc-ork-elf/lib/libc.a(mbtowc_r.o)
                              /usr/local/openravenscar/sparc-ork-elf/lib/libc.a(vfprintf.o) (_mbtowc_r)
/usr/local/openravenscar/sparc-ork-elf/lib/libc.a(memchr.o)
                              /usr/local/openravenscar/sparc-ork-elf/lib/libc.a(vfprintf.o) (memchr)
/usr/local/openravenscar/sparc-ork-elf/lib/libc.a(memmove.o)
                              /usr/local/openravenscar/sparc-ork-elf/lib/libc.a(fvwrite.o) (memmove)
/usr/local/openravenscar/sparc-ork-elf/lib/libc.a(mprec.o)
                              /usr/local/openravenscar/sparc-ork-elf/lib/libc.a(dtoa.o) (_Balloc)
/usr/local/openravenscar/sparc-ork-elf/lib/libc.a(refill.o)
                              /usr/local/openravenscar/sparc-ork-elf/lib/libc.a(rget.o) (__srefill)
/usr/local/openravenscar/sparc-ork-elf/lib/libc.a(s_isinf.o)
                              /usr/local/openravenscar/sparc-ork-elf/lib/libc.a(vfprintf.o) (isinf)
/usr/local/openravenscar/sparc-ork-elf/lib/libc.a(stdio.o)
                              /usr/local/openravenscar/sparc-ork-elf/lib/libc.a(findfp.o) (__sread)
/usr/local/openravenscar/sparc-ork-elf/lib/libc.a(strtod.o)
                              /usr/local/openravenscar/sparc-ork-elf/lib/libc.a(atof.o) (strtod)
/usr/local/openravenscar/sparc-ork-elf/lib/libc.a(strtoul.o)
                              /usr/local/openravenscar/sparc-ork-elf/lib/libc.a(vfscanf.o) (strtoul)
/usr/local/openravenscar/sparc-ork-elf/lib/libc.a(ungetc.o)
                              /usr/local/openravenscar/sparc-ork-elf/lib/libc.a(vfscanf.o) (ungetc)
/usr/local/openravenscar/sparc-ork-elf/lib/libc.a(writer.o)
                              /usr/local/openravenscar/sparc-ork-elf/lib/libc.a(stdio.o) (_write_r)
/usr/local/openravenscar/sparc-ork-elf/lib/libc.a(callocr.o)
                              /usr/local/openravenscar/sparc-ork-elf/lib/libc.a(mprec.o) (_calloc_r)
/usr/local/openravenscar/sparc-ork-elf/lib/libc.a(closer.o)
                              /usr/local/openravenscar/sparc-ork-elf/lib/libc.a(stdio.o) (_close_r)
/usr/local/openravenscar/sparc-ork-elf/lib/libc.a(fstatr.o)
                              /usr/local/openravenscar/sparc-ork-elf/lib/libc.a(makebuf.o) (_fstat_r)
/usr/local/openravenscar/sparc-ork-elf/lib/libc.a(lseekr.o)
                              /usr/local/openravenscar/sparc-ork-elf/lib/libc.a(stdio.o) (_lseek_r)
/usr/local/openravenscar/sparc-ork-elf/lib/libc.a(readr.o)
                              /usr/local/openravenscar/sparc-ork-elf/lib/libc.a(stdio.o) (_read_r)
/usr/local/openravenscar/sparc-ork-elf/lib/libork.a(ada_exceptions.o)
                              /usr/local/openravenscar/sparc-ork-elf/lib/ada_crt0.o (Instruction_Access_Exception)
/usr/local/openravenscar/sparc-ork-elf/lib/libork.a(close.o)
                              /usr/local/openravenscar/lib/gcc-lib/sparc-ork-elf/2.8.1/adalib/libgnat.a(a-adaint.o) (close)
/usr/local/openravenscar/sparc-ork-elf/lib/libork.a(execv.o)
                              /usr/local/openravenscar/lib/gcc-lib/sparc-ork-elf/2.8.1/adalib/libgnat.a(a-adaint.o) (execv)
/usr/local/openravenscar/sparc-ork-elf/lib/libork.a(fork.o)
                              /usr/local/openravenscar/lib/gcc-lib/sparc-ork-elf/2.8.1/adalib/libgnat.a(a-adaint.o) (fork)
/usr/local/openravenscar/sparc-ork-elf/lib/libork.a(fstat.o)
                              /usr/local/openravenscar/lib/gcc-lib/sparc-ork-elf/2.8.1/adalib/libgnat.a(a-adaint.o) (fstat)
/usr/local/openravenscar/sparc-ork-elf/lib/libork.a(getcwd.o)
                              /usr/local/openravenscar/lib/gcc-lib/sparc-ork-elf/2.8.1/adalib/libgnat.a(a-adaint.o) (getcwd)
/usr/local/openravenscar/sparc-ork-elf/lib/libork.a(getpid.o)
                              /usr/local/openravenscar/lib/gcc-lib/sparc-ork-elf/2.8.1/adalib/libgnat.a(a-adaint.o) (getpid)
/usr/local/openravenscar/sparc-ork-elf/lib/libork.a(isatty.o)
                              /usr/local/openravenscar/sparc-ork-elf/lib/libc.a(makebuf.o) (isatty)
/usr/local/openravenscar/sparc-ork-elf/lib/libork.a(kill.o)
                              /usr/local/openravenscar/sparc-ork-elf/lib/libc.a(signalr.o) (kill)
/usr/local/openravenscar/sparc-ork-elf/lib/libork.a(link.o)
                              /usr/local/openravenscar/lib/gcc-lib/sparc-ork-elf/2.8.1/adalib/libgnat.a(a-adaint.o) (link)
/usr/local/openravenscar/sparc-ork-elf/lib/libork.a(lseek.o)
                              /usr/local/openravenscar/sparc-ork-elf/lib/libc.a(lseekr.o) (lseek)
/usr/local/openravenscar/sparc-ork-elf/lib/libork.a(open.o)
                              /usr/local/openravenscar/lib/gcc-lib/sparc-ork-elf/2.8.1/adalib/libgnat.a(a-adaint.o) (open)
/usr/local/openravenscar/sparc-ork-elf/lib/libork.a(read.o)
                              /usr/local/openravenscar/sparc-ork-elf/lib/libc.a(readr.o) (read)
/usr/local/openravenscar/sparc-ork-elf/lib/libork.a(readdir.o)
                              /usr/local/openravenscar/lib/gcc-lib/sparc-ork-elf/2.8.1/adalib/libgnat.a(a-adaint.o) (readdir)
/usr/local/openravenscar/sparc-ork-elf/lib/libork.a(mkdir.o)
                              /usr/local/openravenscar/lib/gcc-lib/sparc-ork-elf/2.8.1/adalib/libgnat.a(a-adaint.o) (mkdir)
/usr/local/openravenscar/sparc-ork-elf/lib/libork.a(sbrk.o)
                              /usr/local/openravenscar/sparc-ork-elf/lib/libc.a(sbrkr.o) (sbrk)
/usr/local/openravenscar/sparc-ork-elf/lib/libork.a(stat.o)
                              /usr/local/openravenscar/lib/gcc-lib/sparc-ork-elf/2.8.1/adalib/libgnat.a(a-adaint.o) (stat)
/usr/local/openravenscar/sparc-ork-elf/lib/libork.a(uart.o)
                              /usr/local/openravenscar/sparc-ork-elf/lib/libork.a(read.o) (uart_status)
/usr/local/openravenscar/sparc-ork-elf/lib/libork.a(unlink.o)
                              /usr/local/openravenscar/lib/gcc-lib/sparc-ork-elf/2.8.1/adalib/libgnat.a(a-adaint.o) (unlink)
/usr/local/openravenscar/sparc-ork-elf/lib/libork.a(wait.o)
                              /usr/local/openravenscar/lib/gcc-lib/sparc-ork-elf/2.8.1/adalib/libgnat.a(a-adaint.o) (wait)
/usr/local/openravenscar/sparc-ork-elf/lib/libork.a(write.o)
                              /usr/local/openravenscar/sparc-ork-elf/lib/libc.a(writer.o) (write)

Allocating common symbols
Common symbol       size              file

objetos_protegidos__elegir_modo
                    0x10              ./objetos_protegidos.o
ada__finalization__controlledB
                    0x24              /usr/local/openravenscar/lib/gcc-lib/sparc-ork-elf/2.8.1/adalib/libgnat.a(a-finali.o)
devices__wcet_speed
                    0x8               ./devices.o
pulse_interrupt__interr_9
                    0x8               ./pulse_interrupt.o
devices__wcet_eeg   0x8               ./devices.o
ada__finalization__limited_controlledT
                    0x30              /usr/local/openravenscar/lib/gcc-lib/sparc-ork-elf/2.8.1/adalib/libgnat.a(a-finali.o)
errno               0x4               /usr/local/openravenscar/sparc-ork-elf/lib/libc.a(sbrkr.o)
system__finalization_implementation__record_controllerT
                    0x2c              /usr/local/openravenscar/lib/gcc-lib/sparc-ork-elf/2.8.1/adalib/libgnat.a(s-finimp.o)
pulse_interrupt___chain
                    0x4               ./pulse_interrupt.o
modo_interrupcion__interrupt_handler
                    0x48              ./modo_interrupcion.o
ada__finalization__controlledT
                    0x34              /usr/local/openravenscar/lib/gcc-lib/sparc-ork-elf/2.8.1/adalib/libgnat.a(a-finali.o)
system__interrupts__static_interrupt_protectionB
                    0x20              /usr/local/openravenscar/lib/gcc-lib/sparc-ork-elf/2.8.1/adalib/libgnarl.a(s-interr.o)
ada__finalization__limited_controlledB
                    0x24              /usr/local/openravenscar/lib/gcc-lib/sparc-ork-elf/2.8.1/adalib/libgnat.a(a-finali.o)
pulse_interrupt__interr_10
                    0x8               ./pulse_interrupt.o
kernel__peripherals__registers__protected_segment_2_base_register
                    0x4               /usr/local/openravenscar/lib/gcc-lib/sparc-ork-elf/2.8.1/adalib/libgnarl.a(kernel-peripherals-registers.o)
devices__wcet_distance
                    0x8               ./devices.o
ada__finalization__list_controller__list_controllerT
                    0x30              /usr/local/openravenscar/lib/gcc-lib/sparc-ork-elf/2.8.1/adalib/libgnat.a(a-filico.o)
system__exception_table__exception_htable__iterator_indexXn
                    0x1               /usr/local/openravenscar/lib/gcc-lib/sparc-ork-elf/2.8.1/adalib/libgnat.a(s-exctab.o)
pulse_interrupt__interr_6
                    0x8               ./pulse_interrupt.o
gnat__exceptions__exception_typeB
                    0x1c              /usr/local/openravenscar/lib/gcc-lib/sparc-ork-elf/2.8.1/adalib/libgnat.a(g-except.o)
ada__streams__root_stream_typeB
                    0x1c              /usr/local/openravenscar/lib/gcc-lib/sparc-ork-elf/2.8.1/adalib/libgnat.a(a-stream.o)
system__finalization_root__root_controlledT
                    0x2c              /usr/local/openravenscar/lib/gcc-lib/sparc-ork-elf/2.8.1/adalib/libgnat.a(s-finroo.o)
system__tasking__debug__known_tasks
                    0xfa0             /usr/local/openravenscar/lib/gcc-lib/sparc-ork-elf/2.8.1/adalib/libgnarl.a(s-tasdeb.o)
system__finalization_implementation__record_controllerB
                    0x28              /usr/local/openravenscar/lib/gcc-lib/sparc-ork-elf/2.8.1/adalib/libgnat.a(s-finimp.o)
devices__wcet_automatic_driving
                    0x8               ./devices.o
objetos_protegidos__medidas
                    0x14              ./objetos_protegidos.o
system__exceptions__all_others_dummy_exception
                    0x14              /usr/local/openravenscar/lib/gcc-lib/sparc-ork-elf/2.8.1/adalib/libgnat.a(s-except.o)
ada__exceptions__num_subprogram_descriptors
                    0x4               /usr/local/openravenscar/lib/gcc-lib/sparc-ork-elf/2.8.1/adalib/libgnat.a(a-except.o)
system__finalization_root__root_controlledB
                    0x20              /usr/local/openravenscar/lib/gcc-lib/sparc-ork-elf/2.8.1/adalib/libgnat.a(s-finroo.o)
system__tasking__protected_objects__single_entry__protection_entryB
                    0x1c              /usr/local/openravenscar/lib/gcc-lib/sparc-ork-elf/2.8.1/adalib/libgnarl.a(s-tposen.o)
pulse_interrupt__interr_1
                    0x8               ./pulse_interrupt.o
ada__tags__external_tag_htable__tableXn
                    0x100             /usr/local/openravenscar/lib/gcc-lib/sparc-ork-elf/2.8.1/adalib/libgnat.a(a-tags.o)
ada__tags__external_tag_htable__iterator_indexXn
                    0x1               /usr/local/openravenscar/lib/gcc-lib/sparc-ork-elf/2.8.1/adalib/libgnat.a(a-tags.o)
ada__streams__root_stream_typeT
                    0x14              /usr/local/openravenscar/lib/gcc-lib/sparc-ork-elf/2.8.1/adalib/libgnat.a(a-stream.o)
devices__wcet_alarm
                    0x8               ./devices.o
kernel__peripherals__timer_control_mirror
                    0x4               /usr/local/openravenscar/lib/gcc-lib/sparc-ork-elf/2.8.1/adalib/libgnarl.a(kernel-peripherals.o)
devices__wcet_steering
                    0x8               ./devices.o
devices__wcet_display
                    0x8               ./devices.o
system__finalization_root__empty_root_controlledB
                    0x1c              /usr/local/openravenscar/lib/gcc-lib/sparc-ork-elf/2.8.1/adalib/libgnat.a(s-finroo.o)
kernel__threads__queues__thread_list
                    0x10a10           /usr/local/openravenscar/lib/gcc-lib/sparc-ork-elf/2.8.1/adalib/libgnarl.a(kernel-threads-queues.o)
kernel__peripherals__registers__protected_segment_2_end_register
                    0x4               /usr/local/openravenscar/lib/gcc-lib/sparc-ork-elf/2.8.1/adalib/libgnarl.a(kernel-peripherals-registers.o)
kernel__peripherals__registers__protected_segment_1_base_register
                    0x4               /usr/local/openravenscar/lib/gcc-lib/sparc-ork-elf/2.8.1/adalib/libgnarl.a(kernel-peripherals-registers.o)
kernel__peripherals__registers__protected_segment_1_end_register
                    0x4               /usr/local/openravenscar/lib/gcc-lib/sparc-ork-elf/2.8.1/adalib/libgnarl.a(kernel-peripherals-registers.o)
system__stack_checking__null_stack_info
                    0xc               /usr/local/openravenscar/lib/gcc-lib/sparc-ork-elf/2.8.1/adalib/libgnat.a(s-stache.o)
system__finalization_root__empty_root_controlledT
                    0x20              /usr/local/openravenscar/lib/gcc-lib/sparc-ork-elf/2.8.1/adalib/libgnat.a(s-finroo.o)
system__interrupts__user_handler
                    0xb4              /usr/local/openravenscar/lib/gcc-lib/sparc-ork-elf/2.8.1/adalib/libgnarl.a(s-interr.o)
pulse_interrupt__interr_8
                    0x8               ./pulse_interrupt.o
kernel__interrupts__handlers_table
                    0xb4              /usr/local/openravenscar/lib/gcc-lib/sparc-ork-elf/2.8.1/adalib/libgnarl.a(kernel-interrupts.o)
system__task_primitives__operations__all_tasks_l
                    0x8               /usr/local/openravenscar/lib/gcc-lib/sparc-ork-elf/2.8.1/adalib/libgnarl.a(s-taprop.o)
pulse_interrupt__interr_4
                    0x8               ./pulse_interrupt.o
system__soft_links__nt_exc_stack
                    0x2008            /usr/local/openravenscar/lib/gcc-lib/sparc-ork-elf/2.8.1/adalib/libgnat.a(s-soflin.o)
devices__wcet_light
                    0x8               ./devices.o
objetos_protegidos__sintomas
                    0x14              ./objetos_protegidos.o
system__tasking__protected_objects__single_entry__protection_entry_accessM
                    0x4               /usr/local/openravenscar/lib/gcc-lib/sparc-ork-elf/2.8.1/adalib/libgnarl.a(s-tposen.o)
devices__wcet_headposition
                    0x8               ./devices.o
pulse_interrupt__interr_3
                    0x8               ./pulse_interrupt.o
pulse_interrupt__interruptI
                    0x8               ./pulse_interrupt.o
system__finalization_implementation__limited_record_controllerT
                    0x2c              /usr/local/openravenscar/lib/gcc-lib/sparc-ork-elf/2.8.1/adalib/libgnat.a(s-finimp.o)
system__soft_links__nt_tsd
                    0x1c0             /usr/local/openravenscar/lib/gcc-lib/sparc-ork-elf/2.8.1/adalib/libgnat.a(s-soflin.o)
pulse_interrupt__interr_7
                    0x8               ./pulse_interrupt.o
ada__exceptions__null_occurrence
                    0x1a4             /usr/local/openravenscar/lib/gcc-lib/sparc-ork-elf/2.8.1/adalib/libgnat.a(a-except.o)
system__tasking__protected_objects__single_entry__protection_entry_accessL
                    0x28              /usr/local/openravenscar/lib/gcc-lib/sparc-ork-elf/2.8.1/adalib/libgnarl.a(s-tposen.o)
ada__finalization__list_controller__simple_list_controllerT
                    0x30              /usr/local/openravenscar/lib/gcc-lib/sparc-ork-elf/2.8.1/adalib/libgnat.a(a-filico.o)
pulse_interrupt__interr_2
                    0x8               ./pulse_interrupt.o
system__exception_table__exception_htable__tableXn
                    0x94              /usr/local/openravenscar/lib/gcc-lib/sparc-ork-elf/2.8.1/adalib/libgnat.a(s-exctab.o)
system__exceptions__others_dummy_exception
                    0x14              /usr/local/openravenscar/lib/gcc-lib/sparc-ork-elf/2.8.1/adalib/libgnat.a(s-except.o)
system__finalization_implementation__limited_record_controllerB
                    0x24              /usr/local/openravenscar/lib/gcc-lib/sparc-ork-elf/2.8.1/adalib/libgnat.a(s-finimp.o)
system__tasking__protected_objects__single_entry___master
                    0x4               /usr/local/openravenscar/lib/gcc-lib/sparc-ork-elf/2.8.1/adalib/libgnarl.a(s-tposen.o)
kernel__threads__thread_idL
                    0x28              /usr/local/openravenscar/lib/gcc-lib/sparc-ork-elf/2.8.1/adalib/libgnarl.a(kernel-threads.o)
system__interrupts__static_interrupt_protectionT
                    0x20              /usr/local/openravenscar/lib/gcc-lib/sparc-ork-elf/2.8.1/adalib/libgnarl.a(s-interr.o)
pulse_interrupt__interrupt
                    0x8               ./pulse_interrupt.o
devices__wcet_eyes_image
                    0x8               ./devices.o
devices__wcet_brake
                    0x8               ./devices.o
system__interrupts__reserve
                    0xf               /usr/local/openravenscar/lib/gcc-lib/sparc-ork-elf/2.8.1/adalib/libgnarl.a(s-interr.o)
pulse_interrupt__interr_5
                    0x8               ./pulse_interrupt.o
system__tasking__protected_objects__single_entry__protection_entryT
                    0x14              /usr/local/openravenscar/lib/gcc-lib/sparc-ork-elf/2.8.1/adalib/libgnarl.a(s-tposen.o)
tools__big_bang     0x8               ./tools.o
system__secondary_stack__ss_pool
                    0x4               /usr/local/openravenscar/lib/gcc-lib/sparc-ork-elf/2.8.1/adalib/libgnat.a(s-secsta.o)
ada__finalization__list_controller__list_controllerB
                    0x28              /usr/local/openravenscar/lib/gcc-lib/sparc-ork-elf/2.8.1/adalib/libgnat.a(a-filico.o)
gnat__exceptions__exception_typeT
                    0x2c              /usr/local/openravenscar/lib/gcc-lib/sparc-ork-elf/2.8.1/adalib/libgnat.a(g-except.o)
ada__finalization__list_controller__simple_list_controllerB
                    0x28              /usr/local/openravenscar/lib/gcc-lib/sparc-ork-elf/2.8.1/adalib/libgnat.a(a-filico.o)
system__task_primitives__operations__atcb_array
                    0x6a6a0           /usr/local/openravenscar/lib/gcc-lib/sparc-ork-elf/2.8.1/adalib/libgnarl.a(s-taprop.o)

Memory Configuration

Name             Origin             Length             Attributes
rom              0x00000000         0x00200000         xr
ram              0x02000000         0x003f8000         xrw
*default*        0x00000000         0xffffffff

Linker script and memory map

                0x00200000                PROM_SIZE=0x200000
                0x00400000                RAM_SIZE=0x400000
                0x00000000                PROM_START=0x0
                0x00200000                PROM_END=(PROM_START+PROM_SIZE)
                0x02000000                RAM_START=0x2000000
                0x02400000                RAM_END=(RAM_START+RAM_SIZE)

.text           0x02000000    0x363b0
 CREATE_OBJECT_SYMBOLS
                0x02000000                text_start=.
 *(.text)
 .text          0x02000000     0x1384 /usr/local/openravenscar/sparc-ork-elf/lib/ada_crt0.o
                0x020011bc                __exit
                0x02000000                trap_table
                0x02000000                start
                0x020011bc                _exit
 .text          0x02001384      0x2a4 b~main.o
                0x02001610                ada_main___elabb
                0x02001384                adainit
                0x02001590                main
                0x02001574                adafinal
 .text          0x02001628       0x1c ./main.o
                0x02001628                _ada_main
 .text          0x02001644       0x98 ./force_external_interrupt_2.o
                0x02001644                _ada_force_external_interrupt_2
 .text          0x020016dc     0x1f98 ./objetos_protegidos.o
                0x02001a9c                objetos_protegidos__sintomasPT__get_distancia_peligrosaN
                0x02002c84                objetos_protegidos__medidasPT__set_velocidadN
                0x020017e4                objetos_protegidos__sintomasPT__get_cabezaN
                0x020018cc                objetos_protegidos__sintomasPT__get_distancia_inseguraN
                0x020017a8                objetos_protegidos___elabs
                0x02001944                objetos_protegidos__sintomasPT__set_distancia_inseguraN
                0x02001e20                objetos_protegidos__sintomasPT__get_volantazoP
                0x020016dc                objetos_protegidos___init_proc
                0x02002c30                objetos_protegidos__medidasPT__get_velocidadN
                0x02003314                objetos_protegidos__elegir_modoPT__setmodoN
                0x0200365c                objetos_protegidos___elabb
                0x02001a2c                objetos_protegidos__sintomasPT__set_distancia_imprudenteN
                0x02002128                objetos_protegidos__sintomasPT__get_distancia_peligrosaP
                0x02001fac                objetos_protegidos__sintomasPT__set_distancia_peligrosaP
                0x02001b14                objetos_protegidos__sintomasPT__set_distancia_peligrosaN
                0x02002be8                objetos_protegidos__medidasPT__set_distanciaN
                0x020019b4                objetos_protegidos__sintomasPT__get_distancia_imprudenteN
                0x02002d04                objetos_protegidos__medidasPT__set_velocidadP
                0x02001768                objetos_protegidos___init_proc__3
                0x020025bc                objetos_protegidos__sintomasPT__set_distancia_inseguraP
                0x020028c4                objetos_protegidos__sintomasPT__set_cabezaP
                0x020022b4                objetos_protegidos__sintomasPT__set_distancia_imprudenteP
                0x0200172c                objetos_protegidos___init_proc__2
                0x02003004                objetos_protegidos__medidasPT__set_distanciaP
                0x02003508                objetos_protegidos__elegir_modoPT__getmodoP
                0x020032cc                objetos_protegidos__elegir_modoPT__getmodoN
                0x02002a40                objetos_protegidos__sintomasPT__get_cabezaP
                0x02001bfc                objetos_protegidos__sintomasPT__set_volantazoN
                0x02001b84                objetos_protegidos__sintomasPT__get_volantazoN
                0x02002e78                objetos_protegidos__medidasPT__get_velocidadP
                0x02002b94                objetos_protegidos__medidasPT__get_distanciaN
                0x02002738                objetos_protegidos__sintomasPT__get_distancia_inseguraP
                0x02001ca4                objetos_protegidos__sintomasPT__set_volantazoP
                0x0200185c                objetos_protegidos__sintomasPT__set_cabezaN
                0x02003178                objetos_protegidos__medidasPT__get_distanciaP
                0x02002430                objetos_protegidos__sintomasPT__get_distancia_imprudenteP
                0x0200338c                objetos_protegidos__elegir_modoPT__setmodoP
 .text          0x02003674      0x57c ./pulse_interrupt.o
                0x02003bbc                pulse_interrupt___elabb
                0x020036f0                pulse_interrupt___elabs
                0x02003674                pulse_interrupt___init_proc
                0x02003944                pulse_interrupt__interruptTKB
 .text          0x02003bf0     0x50d8 ./devices.o
                0x0200724c                devices___init_proc__6
                0x02007efc                devices__display_distance
                0x020081a4                devices__display_electrodes_sample
                0x02003d8c                devices__reading_sensors
                0x02005b2c                devices__reading_speed
                0x020080b8                devices__display_headposition_sample
                0x02008024                devices__display_steering
                0x02006698                devices___init_proc__5
                0x02003d2c                devices___init_proc
                0x02004f00                devices___init_proc__3
                0x0200891c                devices(bool,...)(...)( *)
                0x0200439c                devices__reading_eyesimage
                0x02007f90                devices__display_speed
                0x02008c50                devices___elabb
                0x02008bf4                devices__activate_brake
                0x020072ac                devices__reading_steering
                0x020084bc                devices__display_cronometro
                0x02008834                devices__light
                0x02005acc                devices___init_proc__4
                0x020066f8                devices__reading_headposition
                0x02004f60                devices__reading_distance
                0x02008b98                devices__activate_automatic_driving
                0x0200433c                devices___init_proc__2
                0x02003bf0                devices___elabs
                0x02008290                devices__display_eyes_sample
                0x02007e18                devices__display_pulse_rate
 .text          0x02008cc8      0xb2c ./actuadores.o
                0x02008d44                actuadores___init_proc__2
                0x020097c4                actuadores___elabb
                0x02008cc8                actuadores___init_proc
                0x02008de0                actuadores__displayB
                0x02009224                actuadores__riesgosB
 .text          0x020097f4      0x944 ./modo_interrupcion.o
                0x020097f4                modo_interrupcion___init_proc
                0x02009d94                modo_interrupcion__modoB
                0x02009934                modo_interrupcion__interrupt_handlerPT__B5s
                0x0200a114                modo_interrupcion___elabb
                0x0200988c                modo_interrupcion___init_proc__2
                0x02009a00                modo_interrupcion__interrupt_handlerPT__E4s
                0x02009908                modo_interrupcion___elabs
                0x02009c40                modo_interrupcion__interrupt_handlerPT__interrupcionP
                0x020099c8                modo_interrupcion__interrupt_handlerPT__interrupcionN
 .text          0x0200a138      0xe5c ./sensores.o
                0x0200a7d4                sensores__distanciaB
                0x0200a138                sensores___init_proc
                0x0200a2cc                sensores__cabezaB
                0x0200af58                sensores___elabb
                0x0200a1b4                sensores___init_proc__2
                0x0200ac54                sensores__volanteB
                0x0200a230                sensores___init_proc__3
 .text          0x0200af94      0x9a8 ./workload.o
                0x0200af94                workload___elabs
                0x0200b394                workload__small_whetstone
                0x0200b924                workload___elabb
 .text          0x0200b93c      0x8cc ./tools.o
                0x0200c1d8                tools___elabb
                0x0200c0e0                tools__execution_time
                0x0200c030                tools__finishing_notice
                0x0200c154                tools__max
                0x0200bf80                tools__starting_notice
                0x0200b93c                tools___elabs
                0x0200bc28                tools__print_an_integer
                0x0200bde0                tools__print_a_float
                0x0200b988                tools__current_time
 .text          0x0200c208      0x81c ./add.o
                0x0200c208                add__background
                0x0200c244                add___elabb
 .text          0x0200ca24      0x5e4 /usr/local/openravenscar/lib/gcc-lib/sparc-ork-elf/2.8.1/adalib/libgnarl.a(a-reatim.o)
                0x0200ca50                ada__real_time__Oadd__2
                0x0200cc24                ada__real_time__split
                0x0200ca40                ada__real_time__Oadd
                0x0200caa0                ada__real_time__Osubtract__4
                0x0200cba4                ada__real_time__nanoseconds
                0x0200cb10                ada__real_time__Odivide__2
                0x0200cacc                ada__real_time__Odivide
                0x0200ca80                ada__real_time__Osubtract__2
                0x0200cb94                ada__real_time__to_duration
                0x0200cf3c                ada__real_time__time_of
                0x0200ca60                ada__real_time__Oadd__3
                0x0200cbf4                ada__real_time__milliseconds
                0x0200ca24                ada__real_time__clock
                0x0200cbc8                ada__real_time__microseconds
                0x0200ca70                ada__real_time__Osubtract
                0x0200ca90                ada__real_time__Osubtract__3
                0x0200cb9c                ada__real_time__to_time_span
                0x0200cb68                ada__real_time__Omultiply__2
                0x0200cb3c                ada__real_time__Omultiply
 .text          0x0200d008       0x68 /usr/local/openravenscar/lib/gcc-lib/sparc-ork-elf/2.8.1/adalib/libgnarl.a(a-retide.o)
                0x0200d04c                ada__real_time__delays__to_duration
                0x0200d008                ada__real_time__delays__delay_until
 .text          0x0200d070      0xcc4 /usr/local/openravenscar/lib/gcc-lib/sparc-ork-elf/2.8.1/adalib/libgnarl.a(s-interr.o)
                0x0200d32c                system__interrupts__is_reserved
                0x0200d094                system__interrupts___elabs
                0x0200dac4                system__interrupts__install_handlers
                0x0200d180                system__interrupts__ada_interrupt_wrapper
                0x0200d3a4                system__interrupts__current_handler__3
                0x0200dc40                system__interrupts___init_proc__4
                0x0200dc4c                system__interrupts___init_proc__5
                0x0200dbec                system__interrupts___init_proc__2
                0x0200da5c                system__interrupts__reference
                0x0200d264                system__interrupts__register_interrupt_handler
                0x0200dd1c                system__interrupts___init_proc__7
                0x0200dbe4                system__interrupts___init_proc
                0x0200d880                system__interrupts__detach_handler__3
                0x0200d628                system__interrupts__exchange_handler
                0x0200d420                system__interrupts__attach_handler__3
                0x0200d340                system__interrupts__is_handler_attached
                0x0200d2b8                system__interrupts__is_registered
                0x0200dd28                system__interrupts___init_proc__8
                0x0200da8c                system__interrupts__finalize
                0x0200db7c                system__interrupts___elabb
                0x0200d070                system__interrupts___size
                0x0200dbf8                system__interrupts___init_proc__3
                0x0200dabc                system__interrupts__has_interrupt_or_attach_handler
                0x0200dc9c                system__interrupts___init_proc__6
 .text          0x0200dd34       0x54 /usr/local/openravenscar/lib/gcc-lib/sparc-ork-elf/2.8.1/adalib/libgnarl.a(s-osinte.o)
                0x0200dd60                system__os_interface__detach_handler
                0x0200dd34                system__os_interface__priority_of_interrupt
                0x0200dd48                system__os_interface__attach_handler
                0x0200dd74                system__os_interface__current_handler
 .text          0x0200dd88      0x10c /usr/local/openravenscar/lib/gcc-lib/sparc-ork-elf/2.8.1/adalib/libgnarl.a(s-taprob.o)
                0x0200de74                system__tasking__protected_objects___init_proc
                0x0200de44                system__tasking__protected_objects__unlock
                0x0200ddb4                system__tasking__protected_objects__lock
                0x0200de80                system__tasking__protected_objects___init_proc__2
                0x0200dd88                system__tasking__protected_objects__initialize_protection
                0x0200ddfc                system__tasking__protected_objects__lock_read_only
                0x0200de5c                system__tasking__protected_objects__finalize_protection
 .text          0x0200de94      0x978 /usr/local/openravenscar/lib/gcc-lib/sparc-ork-elf/2.8.1/adalib/libgnarl.a(s-taprop.o)
                0x0200e114                system__task_primitives__operations__get_priority
                0x0200df8c                system__task_primitives__operations__unlock__2
                0x0200e2ec                system__task_primitives__operations__check_no_locks
                0x0200df10                system__task_primitives__operations__write_lock
                0x0200e34c                system__task_primitives__operations__resume_task
                0x0200e3cc                system__task_primitives__operations___elabb
                0x0200e058                system__task_primitives__operations__clock
                0x0200df2c                system__task_primitives__operations__write_lock__2
                0x0200decc                system__task_primitives__operations__get_thread_id
                0x0200dfe0                system__task_primitives__operations__timed_delay
                0x0200e0f4                system__task_primitives__operations__set_priority
                0x0200dfbc                system__task_primitives__operations__timed_sleep
                0x0200deb0                system__task_primitives__operations__self
                0x0200dfa4                system__task_primitives__operations__sleep
                0x0200e2d0                system__task_primitives__operations__set_exit_task_procedure
                0x0200df78                system__task_primitives__operations__unlock
                0x0200e304                system__task_primitives__operations__environment_task
                0x0200ded8                system__task_primitives__operations__initialize_lock
                0x0200e600                system__task_primitives__operations___init_proc
                0x0200e2b4                system__task_primitives__operations__exit_task
                0x0200e07c                system__task_primitives__operations__wakeup
                0x0200de94                system__task_primitives__operations__set
                0x0200e2dc                system__task_primitives__operations__abort_task
                0x0200e310                system__task_primitives__operations__lock_all_tasks_list
                0x0200df44                system__task_primitives__operations__write_lock__3
                0x0200e2a4                system__task_primitives__operations__finalize_tcb
                0x0200e190                system__task_primitives__operations__new_atcb
                0x0200e344                system__task_primitives__operations__suspend_task
                0x0200e090                system__task_primitives__operations__yield
                0x0200e32c                system__task_primitives__operations__unlock_all_tasks_list
                0x0200e354                system__task_primitives__operations__initialize
                0x0200e2e4                system__task_primitives__operations__check_exit
                0x0200e208                system__task_primitives__operations__initialize_tcb
                0x0200dec4                system__task_primitives__operations__stack_guard
                0x0200df08                system__task_primitives__operations__finalize_lock
                0x0200e2ac                system__task_primitives__operations__default_exit_task_procedure
                0x0200e244                system__task_primitives__operations__create_task
                0x0200def0                system__task_primitives__operations__initialize_lock__2
                0x0200df5c                system__task_primitives__operations__read_lock
                0x0200e12c                system__task_primitives__operations__enter_task
 .text          0x0200e80c      0x924 /usr/local/openravenscar/lib/gcc-lib/sparc-ork-elf/2.8.1/adalib/libgnarl.a(s-tarest.o)
                0x0200ea80                system__tasking__restricted__stages__create_restricted_task
                0x0200ef80                system__tasking__restricted__stages__restricted_terminated
                0x0200ec90                system__tasking__restricted__stages__activate_restricted_tasks
                0x0200ee50                system__tasking__restricted__stages__complete_restricted_activation
                0x0200ef94                system__tasking__restricted__stages__finalize_global_tasks
                0x0200efe8                system__tasking__restricted__stages___elabb
                0x0200ef20                system__tasking__restricted__stages__complete_restricted_task
 .text          0x0200f130      0xf44 /usr/local/openravenscar/lib/gcc-lib/sparc-ork-elf/2.8.1/adalib/libgnarl.a(s-tasdeb.o)
                0x0200fda8                system__tasking__debug__image
                0x0201004c                system__tasking__debug___init_proc__2
                0x0200fa84                system__tasking__debug__print_current_task
                0x0200fcf8                system__tasking__debug__trace__2
                0x0200f130                system__tasking__debug___elabs
                0x0200faa0                system__tasking__debug__list_tasks
                0x0200ff50                system__tasking__debug__resume_all_tasks
                0x0200f1a8                system__tasking__debug__set_user_state
                0x0200f8d0                system__tasking__debug__print_task_info_header
                0x0201000c                system__tasking__debug___init_proc
                0x0200f194                system__tasking__debug__self
                0x0200ff88                system__tasking__debug___elabb
                0x0200fae0                system__tasking__debug__print_accept_info
                0x0200fd94                system__tasking__debug__set_trace
                0x0200fba4                system__tasking__debug__trace
                0x0200fd2c                system__tasking__debug__trace__3
                0x0200fd60                system__tasking__debug__trace__4
                0x0200f490                system__tasking__debug__print_task_info
                0x0200f18c                system__tasking__debug__task_termination_hook
                0x0200f184                system__tasking__debug__task_creation_hook
                0x0200ff18                system__tasking__debug__suspend_all_tasks
 .text          0x02010074      0x75c /usr/local/openravenscar/lib/gcc-lib/sparc-ork-elf/2.8.1/adalib/libgnarl.a(s-taskin.o)
                0x02010488                system__tasking___init_proc__3
                0x02010730                system__tasking___init_proc__8
                0x020106f0                system__tasking___init_proc__7
                0x02010074                system__tasking__self
                0x02010450                system__tasking___init_proc__2
                0x020101b0                system__tasking___elabb
                0x02010504                system__tasking___init_proc__4
                0x0201073c                system__tasking___init_proc__9
                0x020103fc                system__tasking___init_proc
                0x02010558                system__tasking___init_proc__6
                0x02010088                system__tasking__initialize_atcb
                0x02010510                system__tasking___init_proc__5
 .text          0x020107d0       0x14 /usr/local/openravenscar/lib/gcc-lib/sparc-ork-elf/2.8.1/adalib/libgnarl.a(s-taspri.o)
                0x020107d0                system__task_primitives___init_proc
 .text          0x020107e4      0x8cc /usr/local/openravenscar/lib/gcc-lib/sparc-ork-elf/2.8.1/adalib/libgnarl.a(s-tposen.o)
                0x02010a24                system__tasking__protected_objects__single_entry__check_exception
                0x02010804                system__tasking__protected_objects__single_entry___elabs
                0x020107e4                system__tasking__protected_objects__single_entry___size
                0x02010b2c                system__tasking__protected_objects__single_entry__po_do_or_queue
                0x02010f58                system__tasking__protected_objects__single_entry__timed_protected_single_entry_call
                0x020107fc                system__tasking__protected_objects__single_entry___deep_finalize
                0x0201098c                system__tasking__protected_objects__single_entry__wait_for_completion
                0x02010a48                system__tasking__protected_objects__single_entry__initialize_protection_entry
                0x02010acc                system__tasking__protected_objects__single_entry__lock_read_only_entry
                0x02011054                system__tasking__protected_objects__single_entry__protected_count_entry
                0x02011040                system__tasking__protected_objects__single_entry__complete_single_entry_body
                0x02010cbc                system__tasking__protected_objects__single_entry__service_entry
                0x0201106c                system__tasking__protected_objects__single_entry__protected_single_entry_caller
                0x02010a84                system__tasking__protected_objects__single_entry__lock_entry
                0x02010b14                system__tasking__protected_objects__single_entry__unlock_entry
                0x02010e48                system__tasking__protected_objects__single_entry__protected_single_entry_call
                0x02010934                system__tasking__protected_objects__single_entry__send_program_error
                0x02010970                system__tasking__protected_objects__single_entry__wakeup_entry_caller
                0x02010cd8                system__tasking__protected_objects__single_entry__po_service_entry
                0x02011048                system__tasking__protected_objects__single_entry__exceptional_complete_single_entry_body
                0x020109b4                system__tasking__protected_objects__single_entry__wait_for_completion_with_timeout
                0x02011080                system__tasking__protected_objects__single_entry___init_proc
 .text          0x020110b0      0x1f0 /usr/local/openravenscar/lib/gcc-lib/sparc-ork-elf/2.8.1/adalib/libgnarl.a(kernel-interrupts.o)
                0x02011178                kernel_detach_interrupt_handler
                0x020111c0                kernel__interrupts___elabb
                0x020110b0                kernel__interrupts__null_handler
                0x020110b8                kernel__interrupts__wrapper
                0x020111a0                kernel_current_interrupt_handler
                0x02011118                kernel_attach_interrupt_handler
                0x02011244                kernel__interrupts___init_proc__2
                0x0201122c                kernel__interrupts___init_proc
 .text          0x020112a0      0x5dc /usr/local/openravenscar/lib/gcc-lib/sparc-ork-elf/2.8.1/adalib/libgnarl.a(kernel-threads.o)
                0x020112a0                kernel__threads___elabs
                0x02011840                kernel__threads___init_proc__3
                0x02011510                kernel_yield
                0x02011610                kernel_check_no_mutexes
                0x02011620                kernel_condition_init
                0x02011470                kernel__threads__set_active_priority
                0x02011424                kernel_set_priority
                0x020116e4                kernel_condition_signal
                0x02011744                kernel_thread_create
                0x0201132c                kernel__threads__default_dummy_task_function
                0x0201180c                kernel_thread_self
                0x020112dc                kernel__threads__thread_caller
                0x02011628                kernel_condition_wait
                0x0201133c                kernel_initialize
                0x020115b0                kernel_mutex_unlock
                0x02011558                kernel_mutex_lock
                0x0201154c                kernel_mutex_init
                0x0201181c                kernel__threads___elabb
                0x0201182c                kernel__threads___init_proc
                0x02011838                kernel__threads___init_proc__2
                0x020114f4                kernel_get_priority
 .text          0x0201187c       0x28 /usr/local/openravenscar/lib/gcc-lib/sparc-ork-elf/2.8.1/adalib/libgnarl.a(kernel-threads-atcb.o)
                0x02011894                kernel__threads__atcb___elabb
                0x02011884                kernel__threads__atcb__thread_self_atcb
                0x0201187c                kernel__threads__atcb__set_atcb
 .text          0x020118a4      0x478 /usr/local/openravenscar/lib/gcc-lib/sparc-ork-elf/2.8.1/adalib/libgnarl.a(kernel-threads-queues.o)
                0x02011abc                kernel__threads__queues__insert_alarm
                0x02011960                kernel__threads__queues__insert_at_tail
                0x020118bc                kernel__threads__queues__insert_at_head
                0x02011b88                kernel__threads__queues__extract_first_alarm
                0x02011a70                kernel__threads__queues__get_new_thread_descriptor
                0x02011c8c                kernel__threads__queues___init_proc
                0x02011a04                kernel__threads__queues__extract_from_ready
                0x02011bb4                kernel__threads__queues__get_next_alarm_time
                0x02011be8                kernel__threads__queues___elabb
                0x02011a4c                kernel__threads__queues__next_running
                0x020118b0                kernel__threads__queues__environment_thread_id
                0x020118a4                kernel__threads__queues__dummy_thread_id
 .text          0x02011d1c      0x108 /usr/local/openravenscar/lib/gcc-lib/sparc-ork-elf/2.8.1/adalib/libgnarl.a(kernel-threads-protection.o)
                0x02011d40                kernel__threads__protection__leave_kernel
                0x02011d1c                kernel__threads__protection__dispatch
                0x02011e14                kernel__threads__protection___elabb
                0x02011d2c                kernel__threads__protection__enter_kernel
 .text          0x02011e24      0x3c4 /usr/local/openravenscar/lib/gcc-lib/sparc-ork-elf/2.8.1/adalib/libgnarl.a(kernel-time.o)
                0x02011edc                kernel_delay_until
                0x02011e24                kernel_clock
                0x020121a8                kernel__time___elabb
 .text          0x020121e8       0x9c /usr/local/openravenscar/lib/gcc-lib/sparc-ork-elf/2.8.1/adalib/libgnarl.a(kernel-memory.o)
                0x02012244                kernel__memory___elabb
                0x020121f0                kernel_new_stack
                0x020121e8                kernel_new_memory_region
 .text          0x02012284       0x88 /usr/local/openravenscar/lib/gcc-lib/sparc-ork-elf/2.8.1/adalib/libgnarl.a(kernel-cpu_primitives.o)
                0x02012284                kernel__cpu_primitives__context_switch
                0x02012290                kernel__cpu_primitives__initialize_context
                0x020122fc                kernel__cpu_primitives___elabb
 .text          0x0201230c       0x44 /usr/local/openravenscar/lib/gcc-lib/sparc-ork-elf/2.8.1/adalib/libgnarl.a(kernel-peripherals-registers.o)
                0x0201230c                kernel__peripherals__registers___elabs
 .text          0x02012350      0x6ac /usr/local/openravenscar/lib/gcc-lib/sparc-ork-elf/2.8.1/adalib/libgnarl.a(kernel-peripherals.o)
                0x02012360                kernel__peripherals__stop_watch_dog
                0x02012350                kernel__peripherals__to_vector
                0x0201237c                kernel__peripherals__init_clock
                0x02012948                kernel__peripherals___elabb
                0x02012460                kernel__peripherals__cancel_and_set_alarm
                0x0201243c                kernel__peripherals__init_board
                0x02012474                kernel__peripherals__set_alarm
                0x020125e8                kernel__peripherals__read_clock
                0x02012658                kernel__peripherals__clear_alarm_interrupt
                0x02012888                kernel__peripherals__uart_send
                0x02012660                kernel__peripherals__clear_clock_interrupt
                0x0201279c                kernel__peripherals__init_uart
                0x02012374                kernel__peripherals__memory_configuration
                0x02012668                kernel__peripherals__protect_segment
                0x02012358                kernel__peripherals__priority_of_interrupt
 .text          0x020129fc       0xe4 /usr/local/openravenscar/lib/gcc-lib/sparc-ork-elf/2.8.1/adalib/libgnarl.a(kernel-serial_output.o)
                0x02012a54                kernel_new_line
                0x02012a68                kernel_put_line_c
                0x02012a14                kernel__serial_output__put__2
                0x020129fc                kernel_put_c
                0x02012a84                kernel__serial_output__put_line__2
                0x02012ab4                kernel__serial_output___elabb
 .text          0x02012ae0      0x2dc /usr/local/openravenscar/lib/gcc-lib/sparc-ork-elf/2.8.1/adalib/libgnarl.a(context.o)
                0x02012db4                exit_from_context_switch
                0x02012ae0                context_switch
                0x02012aec                context_trap
 .text          0x02012dbc      0x60c /usr/local/openravenscar/lib/gcc-lib/sparc-ork-elf/2.8.1/adalib/libgnarl.a(install_handler.o)
                0x02012e74                set_next_running
                0x02012dbc                enable_traps
                0x02012e20                install_trap_handler
                0x02012dd0                install_int_handler
 .text          0x020133c8       0x34 /usr/local/openravenscar/lib/gcc-lib/sparc-ork-elf/2.8.1/adalib/libgnarl.a(int_level.o)
                0x020133c8                disable_interrupts
                0x020133e0                enable_interrupts
 .text          0x020133fc     0x25c0 /usr/local/openravenscar/lib/gcc-lib/sparc-ork-elf/2.8.1/adalib/libgnat.a(a-except.o)
                0x02014c64                ada__exceptions__sdp_table_sort_move
                0x02014dc4                ada__exceptions__string_to_eid
                0x02014480                __gnat_raise_nodefer_with_msg
                0x0201362c                ada__exceptions__current_target_exception
                0x020145f8                ada__exceptions__raise_from_signal_handler
                0x0201347c                ada__exceptions__address_image
                0x0201487c                ada__exceptions__save_occurrence
                0x02015460                __gnat_notify_exception
                0x02014140                ada__exceptions__propagate_exception
                0x02013fb4                ada__exceptions__exception_name_simple
                0x020147d0                __gnat_reraise
                0x02014560                __gnat_raise_exception
                0x020133fc                ada__exceptions___elabs
                0x02013584                __gnat_break_start
                0x02013570                ada__exceptions__allocate_machine_state
                0x02013650                ada__exceptions__deallocate_machine_state
                0x02013904                ada__exceptions__exception_information
                0x02014730                __gnat_raise_storage_error
                0x020136c0                ada__exceptions__eo_to_string
                0x02014bc8                ada__exceptions__sdp_table_sort_lt
                0x020158d4                ada__exceptions__raise_exception_no_defer
                0x02013ec0                ada__exceptions__exception_name__2
                0x0201597c                ada__exceptions__zzz
                0x0201346c                ada__exceptions__poll
                0x02014750                ada__exceptions__raise_with_c_msg
                0x020154f4                ada__exceptions__unhandled_exception_terminate
                0x02013664                ada__exceptions__eid_to_string
                0x02014910                ada__exceptions__save_occurrence__2
                0x020146bc                ada__exceptions__raise_with_location
                0x02014694                ada__exceptions__raise_no_msg
                0x02013dfc                ada__exceptions__exception_message
                0x02014c94                ada__exceptions__set_exception_c_msg
                0x02014eec                ada__exceptions__string_to_eo
                0x020146f0                __gnat_raise_constraint_error
                0x02014808                ada__exceptions__reraise_occurrence
                0x02015984                ada__exceptions___elabb
                0x020159ac                ada__exceptions___init_proc
                0x02013f84                ada__exceptions__exception_name
                0x02013474                ada__exceptions__aaa
                0x02014850                ada__exceptions__reraise_occurrence_no_defer
                0x02013720                ada__exceptions__exception_identity
                0x0201493c                __gnat_SDP_Table_Build
                0x02015458                __gnat_unhandled_exception
                0x0201358c                ada__exceptions__call_chain
                0x02014784                __gnat_raise_with_msg
                0x02014710                __gnat_raise_program_error
 .text          0x020159bc      0x2ec /usr/local/openravenscar/lib/gcc-lib/sparc-ork-elf/2.8.1/adalib/libgnat.a(a-filico.o)
                0x02015a08                ada__finalization__list_controller___deep_finalize__2
                0x02015c74                ada__finalization__list_controller___init_proc__2
                0x02015c38                ada__finalization__list_controller__finalize
                0x020159f8                ada__finalization__list_controller___size__2
                0x02015c50                ada__finalization__list_controller___init_proc
                0x02015c04                ada__finalization__list_controller__finalize__2
                0x02015a34                ada__finalization__list_controller___elabs
                0x020159bc                ada__finalization__list_controller___size
                0x02015bec                ada__finalization__list_controller__initialize__2
                0x020159cc                ada__finalization__list_controller___deep_finalize
 .text          0x02015ca8      0x560 /usr/local/openravenscar/lib/gcc-lib/sparc-ork-elf/2.8.1/adalib/libgnat.a(a-finali.o)
                0x02015f08                ada__finalization___size__4
                0x02016188                ada__finalization__initialize
                0x020161a0                ada__finalization__Oeq__2
                0x020161c8                ada__finalization___init_proc
                0x02015cd0                ada__finalization___write__3
                0x020161c0                ada__finalization__finalize__2
                0x02015ca8                ada__finalization___size__3
                0x02015cb8                ada__finalization___read__3
                0x02016190                ada__finalization__adjust
                0x020161e8                ada__finalization___init_proc__2
                0x02015f44                ada__finalization___elabs
                0x02016198                ada__finalization__finalize
                0x02015eb4                ada__finalization___deep_adjust
                0x020161b8                ada__finalization__initialize__2
                0x02015ce8                ada__finalization___assign__3
                0x02015edc                ada__finalization___deep_finalize
                0x02015f18                ada__finalization___deep_finalize__2
 .text          0x02016208       0x6c /usr/local/openravenscar/lib/gcc-lib/sparc-ork-elf/2.8.1/adalib/libgnat.a(a-ioexce.o)
                0x02016208                ada__io_exceptions___elabs
 .text          0x02016274     0x1e98 /usr/local/openravenscar/lib/gcc-lib/sparc-ork-elf/2.8.1/adalib/libgnat.a(a-nuelfu.o)
                0x02017d30                ada__numerics__elementary_functions__sinh
                0x02016bb8                ada__numerics__elementary_functions__arcsin
                0x020169a0                ada__numerics__elementary_functions__arccosh
                0x02016de4                ada__numerics__elementary_functions__arcsinh
                0x02016274                ada__numerics__elementary_functions__Oexpon
                0x02016ab4                ada__numerics__elementary_functions__arccoth
                0x02016a98                ada__numerics__elementary_functions__arccot__2
                0x02016c8c                ada__numerics__elementary_functions__arcsin__2
                0x02017014                ada__numerics__elementary_functions__arctan__2
                0x02016834                ada__numerics__elementary_functions__arccos__2
                0x02017314                ada__numerics__elementary_functions__cos
                0x02017e3c                ada__numerics__elementary_functions__sqrt
                0x02017f48                ada__numerics__elementary_functions__tan__2
                0x02017c34                ada__numerics__elementary_functions__sin__2
                0x02017ac4                ada__numerics__elementary_functions__log__2
                0x02017518                ada__numerics__elementary_functions__cot__2
                0x02018078                ada__numerics__elementary_functions__tanh
                0x02017680                ada__numerics__elementary_functions__coth
                0x02017a08                ada__numerics__elementary_functions__log
                0x020173c4                ada__numerics__elementary_functions__cosh
                0x02016a80                ada__numerics__elementary_functions__arccot
                0x02016f04                ada__numerics__elementary_functions__arctan
                0x02017bec                ada__numerics__elementary_functions__sin
                0x02016734                ada__numerics__elementary_functions__arccos
                0x02017380                ada__numerics__elementary_functions__cos__2
                0x02017ec0                ada__numerics__elementary_functions__tan
                0x02017774                ada__numerics__elementary_functions__exp
                0x02017470                ada__numerics__elementary_functions__cot
                0x02017188                ada__numerics__elementary_functions__arctanh
 .text          0x0201810c       0x18 /usr/local/openravenscar/lib/gcc-lib/sparc-ork-elf/2.8.1/adalib/libgnat.a(a-numeri.o)
                0x0201810c                ada__numerics___elabs
 .text          0x02018124       0xc0 /usr/local/openravenscar/lib/gcc-lib/sparc-ork-elf/2.8.1/adalib/libgnat.a(a-stream.o)
                0x0201813c                ada__streams___elabs
                0x02018134                ada__streams___deep_finalize
                0x02018124                ada__streams___size
                0x020181d4                ada__streams___init_proc
 .text          0x020181e4      0x934 /usr/local/openravenscar/lib/gcc-lib/sparc-ork-elf/2.8.1/adalib/libgnat.a(a-tags.o)
                0x0201884c                ada__tags__length
                0x02018ab8                ada__tags___init_proc
                0x02018358                ada__tags__external_tag_htable__removeXn
                0x02018970                ada__tags__get_rc_offset
                0x02018a8c                ada__tags__set_remotely_callable
                0x02018a54                ada__tags__set_prim_op_address
                0x02018a34                ada__tags__register_tag
                0x020189d4                ada__tags__inherit_tsd
                0x020181e4                ada__tags___elabs
                0x0201894c                ada__tags__get_expanded_name
                0x02018a68                ada__tags__set_expanded_name
                0x0201897c                ada__tags__get_remotely_callable
                0x02018574                ada__tags__expanded_name
                0x020181fc                ada__tags__external_tag_htable__getXn
                0x02018964                ada__tags__get_inheritance_depth
                0x02018994                ada__tags__get_tsd
                0x02018450                ada__tags__external_tag_htable__setXn
                0x0201890c                ada__tags__cw_membership
                0x0201899c                ada__tags__inherit_dt
                0x020182a4                ada__tags__external_tag_htable__get_nextXn
                0x0201867c                ada__tags__get_external_tag
                0x020186a0                ada__tags__internal_tag
                0x02018ac0                ada__tags___init_proc__2
                0x020188a8                ada__tags___elabb
                0x02018a60                ada__tags__set_tsd
                0x02018a74                ada__tags__set_external_tag
                0x020184c4                ada__tags__get_ht_link
                0x02018880                ada__tags__parent_size
                0x0201848c                ada__tags__equal
                0x02018270                ada__tags__external_tag_htable__get_firstXn
                0x02018a48                ada__tags__set_inheritance_depth
                0x020185f8                ada__tags__external_tag
                0x020182e0                ada__tags__external_tag_htable__get_non_nullXn
                0x02018958                ada__tags__get_prim_op_address
                0x02018a80                ada__tags__set_rc_offset
                0x02018530                ada__tags__hash
                0x02018410                ada__tags__external_tag_htable__resetXn
                0x02018568                ada__tags__set_ht_link
                0x02018acc                ada__tags__external_tag_htable___init_procXn
 .text          0x02018b18      0x25c /usr/local/openravenscar/lib/gcc-lib/sparc-ork-elf/2.8.1/adalib/libgnat.a(g-except.o)
                0x02018c64                gnat__exceptions___deep_finalize
                0x02018b30                gnat__exceptions___write
                0x02018b6c                gnat__exceptions___output
                0x02018b8c                gnat__exceptions___assign
                0x02018b38                gnat__exceptions___input
                0x02018c6c                gnat__exceptions___elabs
                0x02018b28                gnat__exceptions___read
                0x02018b18                gnat__exceptions___size
                0x02018d64                gnat__exceptions___init_proc
                0x02018b84                gnat__exceptions__Oeq
                0x02018c5c                gnat__exceptions___deep_adjust
 .text          0x02018d74      0x174 /usr/local/openravenscar/lib/gcc-lib/sparc-ork-elf/2.8.1/adalib/libgnat.a(g-hesora.o)
                0x02018e44                gnat__heap_sort_a__sort
 .text          0x02018ee8      0xc6c /usr/local/openravenscar/lib/gcc-lib/sparc-ork-elf/2.8.1/adalib/libgnat.a(i-c.o)
                0x020197f8                interfaces__c__to_c__4
                0x02019338                interfaces__c__to_ada__6
                0x02018f4c                interfaces__c__is_nul_terminated__2
                0x02018f9c                interfaces__c__to_ada
                0x02018fa4                interfaces__c__to_ada__2
                0x02019460                interfaces__c__to_c
                0x02018f00                interfaces__c__is_nul_terminated
                0x020199ac                interfaces__c__to_c__6
                0x020190d8                interfaces__c__to_ada__3
                0x02018ee8                interfaces__c___elabs
                0x02019660                interfaces__c__to_c__3
                0x020191f8                interfaces__c__to_ada__5
                0x02019800                interfaces__c__to_c__5
                0x02019468                interfaces__c__to_c__2
                0x020191f0                interfaces__c__to_ada__4
 .text          0x02019b54     0x13b4 /usr/local/openravenscar/lib/gcc-lib/sparc-ork-elf/2.8.1/adalib/libgnat.a(s-arit64.o)
                0x02019c90                system__arith_64__hi
                0x0201a238                system__arith_64__scaled_divide
                0x0201a208                system__arith_64__raise_error
                0x02019c08                system__arith_64__Odivide
                0x02019b7c                system__arith_64__Oadd__2
                0x0201ae34                system__arith_64__subtract_with_ovflo_check
                0x02019bac                system__arith_64__Omultiply
                0x02019ca0                system__arith_64__lo
                0x02019bdc                system__arith_64__Omultiply__2
                0x02019d14                system__arith_64__double_divide
                0x0201a004                system__arith_64__multiply_with_ovflo_check
                0x0201aee8                system__arith_64__to_pos_int
                0x02019b54                system__arith_64__Oadd
                0x02019c60                system__arith_64__Oconcat
                0x0201aeb0                system__arith_64__to_neg_int
                0x02019c34                system__arith_64__Orem
                0x02019ca8                system__arith_64__add_with_ovflo_check
                0x02019b94                system__arith_64__Osubtract
 .text          0x0201af08      0x16c /usr/local/openravenscar/lib/gcc-lib/sparc-ork-elf/2.8.1/adalib/libgnat.a(s-except.o)
                0x0201af2c                system__exceptions___init_proc
                0x0201af08                system__exceptions___elabs
                0x0201afd4                system__exceptions___init_proc__4
                0x0201af74                system__exceptions___init_proc__3
                0x0201b014                system__exceptions___init_proc__5
                0x0201af34                system__exceptions___init_proc__2
 .text          0x0201b074      0x54c /usr/local/openravenscar/lib/gcc-lib/sparc-ork-elf/2.8.1/adalib/libgnat.a(s-exctab.o)
                0x0201b388                system__exception_table__get_key
                0x0201b11c                system__exception_table__exception_htable__get_nextXn
                0x0201b350                system__exception_table__equal
                0x0201b2c8                system__exception_table__exception_htable__setXn
                0x0201b574                system__exception_table__exception_htable___init_procXn
                0x0201b074                system__exception_table__exception_htable__getXn
                0x0201b30c                system__exception_table__get_ht_link
                0x0201b288                system__exception_table__exception_htable__resetXn
                0x0201b304                system__exception_table__set_ht_link
                0x0201b390                system__exception_table__internal_exception
                0x0201b158                system__exception_table__exception_htable__get_non_nullXn
                0x0201b314                system__exception_table__hash
                0x0201b0e8                system__exception_table__exception_htable__get_firstXn
                0x0201b4c4                system__exception_table___elabb
                0x0201b4b0                system__exception_table__register_exception
                0x0201b1d0                system__exception_table__exception_htable__removeXn
 .text          0x0201b5c0      0x1c4 /usr/local/openravenscar/lib/gcc-lib/sparc-ork-elf/2.8.1/adalib/libgnat.a(s-exnflt.o)
                0x0201b5c0                system__exn_flt__exn_float
 .text          0x0201b784      0xb2c /usr/local/openravenscar/lib/gcc-lib/sparc-ork-elf/2.8.1/adalib/libgnat.a(s-fatflt.o)
                0x0201c138                system__fat_flt__fat_float__truncation
                0x0201b8c8                system__fat_flt__fat_float__decompose
                0x0201bc5c                system__fat_flt__fat_float__model
                0x0201bb64                system__fat_flt__fat_float__floor
                0x0201bc70                system__fat_flt__fat_float__pred
                0x0201bf38                system__fat_flt__fat_float__scaling
                0x0201bbec                system__fat_flt__fat_float__leading_part
                0x0201c1e8                system__fat_flt__fat_float__unbiased_rounding
                0x0201b7dc                system__fat_flt__fat_float__ceiling
                0x0201b83c                system__fat_flt__fat_float__compose
                0x0201bb3c                system__fat_flt__fat_float__exponent
                0x0201bbc4                system__fat_flt__fat_float__fraction
                0x0201bab4                system__fat_flt__fat_float__gradual_scaling
                0x0201bd28                system__fat_flt__fat_float__remainder
                0x0201beb0                system__fat_flt__fat_float__rounding
                0x0201b784                system__fat_flt__fat_float__adjacent
                0x0201c050                system__fat_flt__fat_float__succ
                0x0201c290                system__fat_flt__fat_float__valid
                0x0201b86c                system__fat_flt__fat_float__copy_sign
                0x0201bc48                system__fat_flt__fat_float__machine
 .text          0x0201c2b0     0x13dc /usr/local/openravenscar/lib/gcc-lib/sparc-ork-elf/2.8.1/adalib/libgnat.a(s-finimp.o)
                0x0201d4d0                system__finalization_implementation__deep_tag_attach
                0x0201c4dc                system__finalization_implementation___read__2
                0x0201cb30                system__finalization_implementation__detach_from_final_list
                0x0201c374                system__finalization_implementation___output
                0x0201cf8c                system__finalization_implementation__finalize_list
                0x0201c5a8                system__finalization_implementation__Oeq__2
                0x0201d65c                system__finalization_implementation___init_proc__2
                0x0201c3d4                system__finalization_implementation___assign
                0x0201d588                system__finalization_implementation__initialize__2
                0x0201c994                system__finalization_implementation__attach_to_final_list
                0x0201d334                system__finalization_implementation__deep_tag_adjust
                0x0201c5f0                system__finalization_implementation___assign__2
                0x0201c38c                system__finalization_implementation__Oeq
                0x0201c31c                system__finalization_implementation___input
                0x0201c2f8                system__finalization_implementation___write
                0x0201d244                system__finalization_implementation__deep_tag_initialize
                0x0201d580                system__finalization_implementation__initialize
                0x0201d638                system__finalization_implementation___init_proc
                0x0201c500                system__finalization_implementation___write__2
                0x0201c6f0                system__finalization_implementation___elabs
                0x0201c590                system__finalization_implementation___output__2
                0x0201c524                system__finalization_implementation___input__2
                0x0201c2c0                system__finalization_implementation___read
                0x0201d0f8                system__finalization_implementation__finalize_one
                0x0201d400                system__finalization_implementation__deep_tag_finalize
                0x0201d0d0                system__finalization_implementation__finalize_global_list
                0x0201d624                system__finalization_implementation__finalize
                0x0201c4cc                system__finalization_implementation___size__2
                0x0201d5f0                system__finalization_implementation__adjust__2
                0x0201c2b0                system__finalization_implementation___size
 .text          0x0201d68c      0x658 /usr/local/openravenscar/lib/gcc-lib/sparc-ork-elf/2.8.1/adalib/libgnat.a(s-finroo.o)
                0x0201d68c                system__finalization_root___size
                0x0201dcc0                system__finalization_root___init_proc__2
                0x0201d69c                system__finalization_root___read
                0x0201d9d4                system__finalization_root___elabs
                0x0201d88c                system__finalization_root__Oeq__2
                0x0201d81c                system__finalization_root___input__2
                0x0201d6a4                system__finalization_root___write
                0x0201d6b4                system__finalization_root___assign
                0x0201dc80                system__finalization_root__finalize
                0x0201d874                system__finalization_root___output__2
                0x0201dc20                system__finalization_root__initialize
                0x0201d6ac                system__finalization_root__Oeq
                0x0201d794                system__finalization_root___read__2
                0x0201d7ec                system__finalization_root___write__2
                0x0201d784                system__finalization_root___size__2
                0x0201dc50                system__finalization_root__adjust
                0x0201d8e4                system__finalization_root___assign__2
                0x0201dcb0                system__finalization_root___init_proc
 .text          0x0201dce4      0x1b4 /usr/local/openravenscar/lib/gcc-lib/sparc-ork-elf/2.8.1/adalib/libgnat.a(s-imgint.o)
                0x0201de20                system__img_int__set_image_integer
                0x0201dce4                system__img_int__image_integer
 .text          0x0201de98      0xbc8 /usr/local/openravenscar/lib/gcc-lib/sparc-ork-elf/2.8.1/adalib/libgnat.a(s-imgrea.o)
                0x0201de98                system__img_real__image_ordinary_fixed_point
                0x0201e584                system__img_real__set_image_real
                0x0201df6c                system__img_real__image_floating_point
 .text          0x0201ea60      0x160 /usr/local/openravenscar/lib/gcc-lib/sparc-ork-elf/2.8.1/adalib/libgnat.a(s-imguns.o)
                0x0201ea60                system__img_uns__image_unsigned
                0x0201eb80                system__img_uns__set_image_unsigned
 .text          0x0201ebc0       0x40 /usr/local/openravenscar/lib/gcc-lib/sparc-ork-elf/2.8.1/adalib/libgnat.a(s-mastop.o)
                0x0201ebd8                system__machine_state_operations__get_code_loc
                0x0201ebc0                system__machine_state_operations__allocate_machine_state
                0x0201ebf8                system__machine_state_operations__set_signal_machine_state
                0x0201ebd0                system__machine_state_operations__free_machine_state
                0x0201ebe0                system__machine_state_operations__machine_state_length
                0x0201ebc8                system__machine_state_operations__enter_handler
                0x0201ebf0                system__machine_state_operations__set_machine_state
                0x0201ebe8                system__machine_state_operations__pop_frame
 .text          0x0201ec00       0x50 /usr/local/openravenscar/lib/gcc-lib/sparc-ork-elf/2.8.1/adalib/libgnat.a(s-parame.o)
                0x0201ec08                system__parameters__minimum_stack_size
                0x0201ec10                system__parameters__adjust_storage_size
                0x0201ec00                system__parameters__default_stack_size
 .text          0x0201ec50      0x314 /usr/local/openravenscar/lib/gcc-lib/sparc-ork-elf/2.8.1/adalib/libgnat.a(s-secsta.o)
                0x0201ef5c                system__secondary_stack___init_proc__2
                0x0201ef00                system__secondary_stack___elabb
                0x0201ec50                system__secondary_stack__ss_allocate
                0x0201ee44                system__secondary_stack__ss_free
                0x0201eee0                system__secondary_stack__ss_release
                0x0201eec0                system__secondary_stack__ss_mark
                0x0201ef48                system__secondary_stack___init_proc
                0x0201ede0                system__secondary_stack__ss_init
 .text          0x0201ef64      0x1fc /usr/local/openravenscar/lib/gcc-lib/sparc-ork-elf/2.8.1/adalib/libgnat.a(s-sopco3.o)
                0x0201ef64                system__string_ops_concat_3__str_concat_3
 .text          0x0201f160      0x1e4 /usr/local/openravenscar/lib/gcc-lib/sparc-ork-elf/2.8.1/adalib/libgnat.a(s-stache.o)
                0x0201f160                system__stack_checking___elabs
                0x0201f178                _gnat_stack_check
                0x0201f2fc                system__stack_checking__set_stack_size
                0x0201f334                system__stack_checking___init_proc
                0x0201f204                system__stack_checking__invalidate_stack_cache
                0x0201f324                system__stack_checking__update_stack_cache
 .text          0x0201f344       0x28 /usr/local/openravenscar/lib/gcc-lib/sparc-ork-elf/2.8.1/adalib/libgnat.a(s-stalib.o)
                0x0201f344                system__standard_library__abort_undefer_direct
                0x0201f360                system__standard_library___init_proc
 .text          0x0201f36c       0x64 /usr/local/openravenscar/lib/gcc-lib/sparc-ork-elf/2.8.1/adalib/libgnat.a(s-stoele.o)
                0x0201f38c                system__storage_elements__Omod
                0x0201f3c0                system__storage_elements__to_address
                0x0201f374                system__storage_elements__Oadd__2
                0x0201f37c                system__storage_elements__Osubtract
                0x0201f36c                system__storage_elements__Oadd
                0x0201f3c8                system__storage_elements__to_integer
                0x0201f384                system__storage_elements__Osubtract__2
 .text          0x0201f3d0     0x102c /usr/local/openravenscar/lib/gcc-lib/sparc-ork-elf/2.8.1/adalib/libgnat.a(s-stratt.o)
                0x0201fae8                system__stream_attributes__i_si
                0x0201fda0                system__stream_attributes__w_ad
                0x0201f4d8                system__stream_attributes__i_b
                0x0201fe94                system__stream_attributes__w_c
                0x0201f6b0                system__stream_attributes__i_lf
                0x0201fa60                system__stream_attributes__i_sf
                0x0202031c                system__stream_attributes__w_su
                0x0201f53c                system__stream_attributes__i_c
                0x0201f7e0                system__stream_attributes__i_llf
                0x0201fc28                system__stream_attributes__i_su
                0x0201f930                system__stream_attributes__i_llu
                0x02020218                system__stream_attributes__w_sf
                0x0201fca0                system__stream_attributes__i_u
                0x020203b8                system__stream_attributes__w_wc
                0x0201f3d0                system__stream_attributes__i_ad
                0x02020360                system__stream_attributes__w_u
                0x020201c0                system__stream_attributes__w_lu
                0x0201fe60                system__stream_attributes__w_b
                0x020200c8                system__stream_attributes__w_lli
                0x0201fbc4                system__stream_attributes__i_ssu
                0x0201f758                system__stream_attributes__i_li
                0x020202b4                system__stream_attributes__w_ssi
                0x02020270                system__stream_attributes__w_si
                0x0201ff78                system__stream_attributes__w_lf
                0x0201fb60                system__stream_attributes__i_ssi
                0x0201f5a0                system__stream_attributes__i_f
                0x0201fff4                system__stream_attributes__w_li
                0x0201fe10                system__stream_attributes__w_as
                0x0201ff20                system__stream_attributes__w_i
                0x0201f628                system__stream_attributes__i_i
                0x0201f888                system__stream_attributes__i_lli
                0x0201fd28                system__stream_attributes__i_wc
                0x0202004c                system__stream_attributes__w_llf
                0x020202e8                system__stream_attributes__w_ssu
                0x0201f448                system__stream_attributes__i_as
                0x0201fec8                system__stream_attributes__w_f
                0x02020144                system__stream_attributes__w_llu
                0x0201f9d8                system__stream_attributes__i_lu
 .text          0x020203fc      0x5b8 /usr/local/openravenscar/lib/gcc-lib/sparc-ork-elf/2.8.1/adalib/libgnat.a(s-strops.o)
                0x02020820                system__string_ops__str_equal
                0x020206f8                system__string_ops__str_concat_sc
                0x02020930                system__string_ops__str_normalize
                0x020203fc                system__string_ops__str_concat
                0x0202061c                system__string_ops__str_concat_cs
                0x02020970                system__string_ops__wide_str_normalize
                0x020205bc                system__string_ops__str_concat_cc
 .text          0x020209b4      0x298 /usr/local/openravenscar/lib/gcc-lib/sparc-ork-elf/2.8.1/adalib/libgnat.a(s-soflin.o)
                0x02020b18                system__soft_links__set_jmpbuf_address_soft
                0x02020a84                system__soft_links__get_stack_info_nt
                0x02020be0                system__soft_links___elabb
                0x02020a78                system__soft_links__get_current_excep_nt
                0x02020b88                system__soft_links__set_exc_stack_addr_soft
                0x020209b4                system__soft_links__abort_defer_nt
                0x020209e8                system__soft_links__check_abort_status_nt
                0x02020a30                system__soft_links__get_sec_stack_addr_nt
                0x02020a24                system__soft_links__set_jmpbuf_address_nt
                0x02020a08                system__soft_links__task_lock_nt
                0x02020bc4                system__soft_links__set_machine_state_addr_soft
                0x020209f8                system__soft_links__current_master_nt
                0x020209bc                system__soft_links__abort_handler_nt
                0x02020ab4                system__soft_links__destroy_tsd
                0x02020b6c                system__soft_links__get_exc_stack_addr_soft
                0x02020a18                system__soft_links__get_jmpbuf_address_nt
                0x020209c4                system__soft_links__abort_undefer_nt
                0x02020a90                system__soft_links__create_tsd
                0x02020a54                system__soft_links__set_machine_state_addr_nt
                0x02020a3c                system__soft_links__set_sec_stack_addr_nt
                0x020209cc                system__soft_links__update_exception_nt
                0x02020a6c                system__soft_links__set_exc_stack_addr_nt
                0x02020c20                system__soft_links___init_proc
                0x02020afc                system__soft_links__get_jmpbuf_address_soft
                0x02020a00                system__soft_links__enter_master_nt
                0x02020ba8                system__soft_links__get_machine_state_addr_soft
                0x02020b50                system__soft_links__set_sec_stack_addr_soft
                0x02020a10                system__soft_links__task_unlock_nt
                0x02020ad8                system__soft_links__get_gnat_exception
                0x02020b34                system__soft_links__get_sec_stack_addr_soft
                0x020209f0                system__soft_links__complete_master_nt
                0x02020a48                system__soft_links__get_machine_state_addr_nt
                0x02020a60                system__soft_links__get_exc_stack_addr_nt
 .text          0x02020c4c       0x68 /usr/local/openravenscar/lib/gcc-lib/sparc-ork-elf/2.8.1/adalib/libgnat.a(s-traceb.o)
                0x02020c60                system__traceback__get_code_loc
                0x02020c88                system__traceback__pop_frame
                0x02020c74                system__traceback__free_machine_state
                0x02020c4c                system__traceback__allocate_machine_state
                0x02020ca0                system__traceback__set_machine_state
 .text          0x02020cb4       0xfc /usr/local/openravenscar/lib/gcc-lib/sparc-ork-elf/2.8.1/adalib/libgnat.a(a-argv.o)
                0x02020d7c                fill_env
                0x02020d20                env_count
                0x02020d5c                len_env
                0x02020cb4                arg_count
                0x02020cc0                gnat_argval
                0x02020cec                fill_arg
                0x02020ccc                len_arg
 .text          0x02020db0      0x14c /usr/local/openravenscar/lib/gcc-lib/sparc-ork-elf/2.8.1/adalib/libgnat.a(a-cio.o)
                0x02020dd0                put_int
                0x02020dec                get_char
                0x02020db0                get_int
                0x02020edc                put_char_stderr
                0x02020e3c                put_char
 .text          0x02020efc        0xc /usr/local/openravenscar/lib/gcc-lib/sparc-ork-elf/2.8.1/adalib/libgnat.a(a-exit.o)
                0x02020efc                set_gnat_exit_status
 .text          0x02020f08      0x1f4 /usr/local/openravenscar/lib/gcc-lib/sparc-ork-elf/2.8.1/adalib/libgnat.a(a-raise.o)
                0x02020f08                _gnat_builtin_longjmp
                0x02020f60                __gnat_malloc
                0x02021018                __gnat_free
                0x02020f48                __gnat_unhandled_terminate
                0x02021054                __gnat_realloc
 .text          0x020210fc      0x410 /usr/local/openravenscar/lib/gcc-lib/sparc-ork-elf/2.8.1/adalib/libgnat.a(a-init.o)
                0x020212f0                __gnat_pop_frame
                0x02021504                __gnat_init_float
                0x020210fc                __gnat_set_globals
                0x020214fc                __gnat_get_code_loc
                0x02021154                __gnat_initialize
                0x02021440                __gnat_enter_handler
                0x020214f4                __gnat_machine_state_length
                0x02021394                __gnat_set_machine_state
 .text          0x0202150c        0x8 /usr/local/openravenscar/lib/gcc-lib/sparc-ork-elf/2.8.1/adalib/libgnat.a(a-final.o)
                0x0202150c                __gnat_finalize
 .text          0x02021514      0xc1c /usr/local/openravenscar/lib/gcc-lib/sparc-ork-elf/2.8.1/adalib/libgnat.a(s-fatllf.o)
                0x02021618                system__fat_llf__fat_long_long_float__copy_sign
                0x02021888                system__fat_llf__fat_long_long_float__gradual_scaling
                0x0202205c                system__fat_llf__fat_long_long_float__unbiased_rounding
                0x02021920                system__fat_llf__fat_long_long_float__exponent
                0x020215e4                system__fat_llf__fat_long_long_float__compose
                0x0202194c                system__fat_llf__fat_long_long_float__floor
                0x02021514                system__fat_llf__fat_long_long_float__adjacent
                0x02021a78                system__fat_llf__fat_long_long_float__pred
                0x020219b8                system__fat_llf__fat_long_long_float__fraction
                0x02021b38                system__fat_llf__fat_long_long_float__remainder
                0x02021d80                system__fat_llf__fat_long_long_float__scaling
                0x02021578                system__fat_llf__fat_long_long_float__ceiling
                0x0202167c                system__fat_llf__fat_long_long_float__decompose
                0x02021ea8                system__fat_llf__fat_long_long_float__succ
                0x020219e4                system__fat_llf__fat_long_long_float__leading_part
                0x02021ce8                system__fat_llf__fat_long_long_float__rounding
                0x02021a60                system__fat_llf__fat_long_long_float__model
                0x02022108                system__fat_llf__fat_long_long_float__valid
                0x02021f98                system__fat_llf__fat_long_long_float__truncation
                0x02021a4c                system__fat_llf__fat_long_long_float__machine
 .text          0x02022130      0x18c /usr/local/openravenscar/lib/gcc-lib/sparc-ork-elf/2.8.1/adalib/libgnat.a(s-imgllu.o)
                0x02022130                system__img_llu__image_long_long_unsigned
                0x02022278                system__img_llu__set_image_long_long_unsigned
 .text          0x020222bc      0x894 /usr/local/openravenscar/lib/gcc-lib/sparc-ork-elf/2.8.1/adalib/libgnat.a(a-adaint.o)
                0x0202244c                get_object_suffix_ptr
                0x020223f8                Get_Default_Identifier_Character_Set
                0x020223e0                Get_Maximum_File_Name_Length
                0x020223f0                Get_File_Names_Case_Sensitive
                0x02022668                file_time_name
                0x02022408                Get_Pathsep_Char
                0x020224e8                open_read
                0x02022400                Get_Dirsep_Char
                0x02022700                is_regular_file
                0x020223e8                Get_Switch_Character
                0x020228b4                locate_regular_file
                0x02022b04                to_canonical_file_list_next
                0x02022b30                to_host_dir_spec
                0x020226e0                __gnat_file_exists
                0x020225d4                __gnat_mkdir
                0x02022b28                to_canonical_path_spec
                0x02022780                is_writable_file
                0x020225ac                open_new_temp
                0x020227b4                portable_spawn
                0x02022b18                to_canonical_dir_spec
                0x020226a0                get_env_value_ptr
                0x02022684                file_time_fd
                0x02022660                readdir_is_thread_safe
                0x02022584                open_new
                0x020222bc                to_gm_time
                0x02022330                Try_Lock
                0x02022b20                to_canonical_file_spec
                0x02022870                portable_wait
                0x02022afc                to_canonical_file_list_init
                0x02022b48                convert_addresses
                0x02022480                get_executable_suffix_ptr
                0x02022740                is_directory
                0x0202255c                open_append
                0x02022534                open_create
                0x0202250c                open_rw
                0x020225ec                file_length
                0x0202262c                readdir_gnat
                0x02022b40                adjust_os_resource_limits
                0x02022a40                locate_exec
                0x02022830                portable_no_block_spawn
                0x020228a0                os_exit
                0x020226d4                Get_Libraries_From_Registry
                0x02022b10                to_canonical_file_list_free
                0x02022410                Get_Current_Dir
                0x02022b38                to_host_file_spec
                0x02022ab4                locate_exec_on_path
                0x020224b4                get_debuggable_suffix_ptr
 .text          0x02022b50      0x294 /usr/local/openravenscar/sparc-ork-elf/lib/libm.a(s_atan.o)
                0x02022b50                atan
 .text          0x02022de4       0xf0 /usr/local/openravenscar/sparc-ork-elf/lib/libm.a(s_cos.o)
                0x02022de4                cos
 .text          0x02022ed4       0x2c /usr/local/openravenscar/sparc-ork-elf/lib/libm.a(s_fabs.o)
                0x02022ed4                fabs
 .text          0x02022f00       0xf0 /usr/local/openravenscar/sparc-ork-elf/lib/libm.a(s_sin.o)
                0x02022f00                sin
 .text          0x02022ff0       0x9c /usr/local/openravenscar/sparc-ork-elf/lib/libm.a(s_tan.o)
                0x02022ff0                tan
 .text          0x0202308c      0x134 /usr/local/openravenscar/sparc-ork-elf/lib/libm.a(s_tanh.o)
                0x0202308c                tanh
 .text          0x020231c0       0xf8 /usr/local/openravenscar/sparc-ork-elf/lib/libm.a(w_acos.o)
                0x020231c0                acos
 .text          0x020232b8       0xf8 /usr/local/openravenscar/sparc-ork-elf/lib/libm.a(w_asin.o)
                0x020232b8                asin
 .text          0x020233b0      0x1c0 /usr/local/openravenscar/sparc-ork-elf/lib/libm.a(w_exp.o)
                0x020233b0                exp
 .text          0x02023570      0x184 /usr/local/openravenscar/sparc-ork-elf/lib/libm.a(w_log.o)
                0x02023570                log
 .text          0x020236f4      0x60c /usr/local/openravenscar/sparc-ork-elf/lib/libm.a(w_pow.o)
                0x020236f4                pow
 .text          0x02023d00      0x118 /usr/local/openravenscar/sparc-ork-elf/lib/libm.a(w_sqrt.o)
                0x02023d00                sqrt
 .text          0x02023e18      0x3ac /usr/local/openravenscar/sparc-ork-elf/lib/libm.a(e_acos.o)
                0x02023e18                __ieee754_acos
 .text          0x020241c4      0x340 /usr/local/openravenscar/sparc-ork-elf/lib/libm.a(e_asin.o)
                0x020241c4                __ieee754_asin
 .text          0x02024504      0x2f0 /usr/local/openravenscar/sparc-ork-elf/lib/libm.a(e_exp.o)
                0x02024504                __ieee754_exp
 .text          0x020247f4      0x310 /usr/local/openravenscar/sparc-ork-elf/lib/libm.a(e_log.o)
                0x020247f4                __ieee754_log
 .text          0x02024b04      0x99c /usr/local/openravenscar/sparc-ork-elf/lib/libm.a(e_pow.o)
                0x02024b04                __ieee754_pow
 .text          0x020254a0      0x3d8 /usr/local/openravenscar/sparc-ork-elf/lib/libm.a(e_rem_pio2.o)
                0x020254a0                __ieee754_rem_pio2
 .text          0x02025878      0x264 /usr/local/openravenscar/sparc-ork-elf/lib/libm.a(e_sqrt.o)
                0x02025878                __ieee754_sqrt
 .text          0x02025adc      0x17c /usr/local/openravenscar/sparc-ork-elf/lib/libm.a(k_cos.o)
                0x02025adc                __kernel_cos
 .text          0x02025c58      0x838 /usr/local/openravenscar/sparc-ork-elf/lib/libm.a(k_rem_pio2.o)
                0x02025c58                __kernel_rem_pio2
 .text          0x02026490      0x11c /usr/local/openravenscar/sparc-ork-elf/lib/libm.a(k_sin.o)
                0x02026490                __kernel_sin
 .text          0x020265ac      0x2b4 /usr/local/openravenscar/sparc-ork-elf/lib/libm.a(k_tan.o)
                0x020265ac                __kernel_tan
 .text          0x02026860      0x40c /usr/local/openravenscar/sparc-ork-elf/lib/libm.a(s_expm1.o)
                0x02026860                expm1
 .text          0x02026c6c       0x18 /usr/local/openravenscar/sparc-ork-elf/lib/libm.a(s_finite.o)
                0x02026c6c                finite
 .text          0x02026c84      0x1a0 /usr/local/openravenscar/sparc-ork-elf/lib/libm.a(s_floor.o)
                0x02026c84                floor
 .text          0x02026e24       0x28 /usr/local/openravenscar/sparc-ork-elf/lib/libm.a(s_isnan.o)
                0x02026e24                isnan
 .text          0x02026e4c        0x8 /usr/local/openravenscar/sparc-ork-elf/lib/libm.a(s_matherr.o)
                0x02026e4c                matherr
 .text          0x02026e54      0x1c8 /usr/local/openravenscar/sparc-ork-elf/lib/libm.a(s_rint.o)
                0x02026e54                rint
 .text          0x0202701c      0x1d8 /usr/local/openravenscar/sparc-ork-elf/lib/libm.a(s_scalbn.o)
                0x0202701c                scalbn
 .text          0x020271f4       0x40 /usr/local/openravenscar/sparc-ork-elf/lib/libm.a(s_copysign.o)
                0x020271f4                copysign
 .text          0x02027234        0x8 /usr/local/openravenscar/lib/gcc-lib/sparc-ork-elf/2.8.1/libgcc.a(__dummy.o)
                0x02027234                __dummy
 .text          0x0202723c       0x48 /usr/local/openravenscar/lib/gcc-lib/sparc-ork-elf/2.8.1/libgcc.a(_ashldi3.o)
                0x0202723c                __ashldi3
 .text          0x02027284       0x38 /usr/local/openravenscar/lib/gcc-lib/sparc-ork-elf/2.8.1/libgcc.a(_cmpdi2.o)
                0x02027284                __cmpdi2
 .text          0x020272bc      0x3c0 /usr/local/openravenscar/lib/gcc-lib/sparc-ork-elf/2.8.1/libgcc.a(_divdi3.o)
                0x020272bc                __divdi3
 .text          0x0202767c      0x1f4 /usr/local/openravenscar/lib/gcc-lib/sparc-ork-elf/2.8.1/libgcc.a(_divsi3.o)
                0x0202767c                udiv
                0x02027688                div
 .text          0x02027870       0x58 /usr/local/openravenscar/lib/gcc-lib/sparc-ork-elf/2.8.1/libgcc.a(_fixsfdi.o)
                0x02027870                __fixsfdi
 .text          0x020278c8      0x1c0 /usr/local/openravenscar/lib/gcc-lib/sparc-ork-elf/2.8.1/libgcc.a(_fixunsdfdi.o)
                0x020278c8                __fixunsdfdi
 .text          0x02027a88      0x1c8 /usr/local/openravenscar/lib/gcc-lib/sparc-ork-elf/2.8.1/libgcc.a(_fixunssfdi.o)
                0x02027a88                __fixunssfdi
 .text          0x02027c50       0x54 /usr/local/openravenscar/lib/gcc-lib/sparc-ork-elf/2.8.1/libgcc.a(_floatdidf.o)
                0x02027c50                __floatdidf
 .text          0x02027ca4       0xa8 /usr/local/openravenscar/lib/gcc-lib/sparc-ork-elf/2.8.1/libgcc.a(_floatdisf.o)
                0x02027ca4                __floatdisf
 .text          0x02027d4c       0x48 /usr/local/openravenscar/lib/gcc-lib/sparc-ork-elf/2.8.1/libgcc.a(_lshrdi3.o)
                0x02027d4c                __lshrdi3
 .text          0x02027d94      0x1f4 /usr/local/openravenscar/lib/gcc-lib/sparc-ork-elf/2.8.1/libgcc.a(_modsi3.o)
                0x02027d94                urem
                0x02027da0                rem
 .text          0x02027f88       0xe0 /usr/local/openravenscar/lib/gcc-lib/sparc-ork-elf/2.8.1/libgcc.a(_muldi3.o)
                0x02027f88                __muldi3
 .text          0x02028068       0xe8 /usr/local/openravenscar/lib/gcc-lib/sparc-ork-elf/2.8.1/libgcc.a(_mulsi3.o)
                0x02028068                umul
 .text          0x02028150      0x340 /usr/local/openravenscar/lib/gcc-lib/sparc-ork-elf/2.8.1/libgcc.a(_udivdi3.o)
                0x02028150                __udivdi3
 .text          0x02028490      0x39c /usr/local/openravenscar/lib/gcc-lib/sparc-ork-elf/2.8.1/libgcc.a(_umoddi3.o)
                0x02028490                __umoddi3
 .text          0x0202882c      0xa48 /usr/local/openravenscar/lib/gcc-lib/sparc-ork-elf/2.8.1/libgcc.a(frame.o)
                0x02029150                __frame_state_for
                0x020290e8                __deregister_frame_info
                0x020290c0                __register_frame_info_table
                0x02029098                __register_frame_info
 .text          0x02029274       0x20 /usr/local/openravenscar/sparc-ork-elf/lib/libc.a(abort.o)
                0x02029274                abort
 .text          0x02029294       0x1c /usr/local/openravenscar/sparc-ork-elf/lib/libc.a(atoi.o)
                0x02029294                atoi
 .text          0x020292b0        0xc /usr/local/openravenscar/sparc-ork-elf/lib/libc.a(errno.o)
                0x020292b0                __errno
 .text          0x020292bc       0x8c /usr/local/openravenscar/sparc-ork-elf/lib/libc.a(exit.o)
                0x020292bc                exit
 .text          0x02029348       0x90 /usr/local/openravenscar/sparc-ork-elf/lib/libc.a(fputc.o)
                0x02029348                fputc
 .text          0x020293d8       0x40 /usr/local/openravenscar/sparc-ork-elf/lib/libc.a(getenv.o)
                0x020293f8                getenv
                0x020293d8                _findenv
 .text          0x02029418      0x100 /usr/local/openravenscar/sparc-ork-elf/lib/libc.a(getenv_r.o)
                0x02029418                _findenv_r
                0x020294fc                _getenv_r
 .text          0x02029518       0x1c /usr/local/openravenscar/sparc-ork-elf/lib/libc.a(gmtime.o)
                0x02029518                gmtime
 .text          0x02029534       0x20 /usr/local/openravenscar/sparc-ork-elf/lib/libc.a(lcltime.o)
                0x02029534                localtime
 .text          0x02029554      0x21c /usr/local/openravenscar/sparc-ork-elf/lib/libc.a(lcltime_r.o)
                0x02029554                localtime_r
 .text          0x02029770       0x38 /usr/local/openravenscar/sparc-ork-elf/lib/libc.a(malloc.o)
                0x02029770                malloc
                0x0202978c                free
 .text          0x020297a8      0x774 /usr/local/openravenscar/sparc-ork-elf/lib/libc.a(mallocr.o)
                0x02029974                _malloc_r
 .text          0x02029f1c       0x80 /usr/local/openravenscar/sparc-ork-elf/lib/libc.a(memcmp.o)
                0x02029f1c                memcmp
 .text          0x02029f9c       0xc4 /usr/local/openravenscar/sparc-ork-elf/lib/libc.a(memcpy.o)
                0x02029f9c                memcpy
 .text          0x0202a060       0xa4 /usr/local/openravenscar/sparc-ork-elf/lib/libc.a(memset.o)
                0x0202a060                memset
 .text          0x0202a104       0x10 /usr/local/openravenscar/sparc-ork-elf/lib/libc.a(mlock.o)
                0x0202a10c                __malloc_unlock
                0x0202a104                __malloc_lock
 .text          0x0202a114       0x70 /usr/local/openravenscar/sparc-ork-elf/lib/libc.a(printf.o)
                0x0202a144                printf
                0x0202a114                _printf_r
 .text          0x0202a184       0x20 /usr/local/openravenscar/sparc-ork-elf/lib/libc.a(realloc.o)
                0x0202a184                realloc
 .text          0x0202a1a4      0x50c /usr/local/openravenscar/sparc-ork-elf/lib/libc.a(reallocr.o)
                0x0202a1a4                _realloc_r
 .text          0x0202a6b0       0x40 /usr/local/openravenscar/sparc-ork-elf/lib/libc.a(rget.o)
                0x0202a6b0                __srget
 .text          0x0202a6f0       0x34 /usr/local/openravenscar/sparc-ork-elf/lib/libc.a(sbrkr.o)
                0x0202a6f0                _sbrk_r
 .text          0x0202a724       0x64 /usr/local/openravenscar/sparc-ork-elf/lib/libc.a(scanf.o)
                0x0202a75c                _scanf_r
                0x0202a724                scanf
 .text          0x0202a788      0x24c /usr/local/openravenscar/sparc-ork-elf/lib/libc.a(signal.o)
                0x0202a7e4                _signal_r
                0x0202a840                _raise_r
                0x0202a8dc                __sigtramp_r
                0x0202a980                signal
                0x0202a9a0                _init_signal
                0x0202a788                _init_signal_r
                0x0202a9b8                __sigtramp
                0x0202a964                raise
 .text          0x0202a9d4       0x4c /usr/local/openravenscar/sparc-ork-elf/lib/libc.a(signalr.o)
                0x0202a9d4                _kill_r
                0x0202aa0c                _getpid_r
 .text          0x0202aa20       0xb4 /usr/local/openravenscar/sparc-ork-elf/lib/libc.a(sprintf.o)
                0x0202aa20                _sprintf_r
                0x0202aa74                sprintf
 .text          0x0202aad4       0x8c /usr/local/openravenscar/sparc-ork-elf/lib/libc.a(strcat.o)
                0x0202aad4                strcat
 .text          0x0202ab60       0xb8 /usr/local/openravenscar/sparc-ork-elf/lib/libc.a(strcmp.o)
                0x0202ab60                strcmp
 .text          0x0202ac18       0x8c /usr/local/openravenscar/sparc-ork-elf/lib/libc.a(strcpy.o)
                0x0202ac18                strcpy
 .text          0x0202aca4       0x78 /usr/local/openravenscar/sparc-ork-elf/lib/libc.a(strlen.o)
                0x0202aca4                strlen
 .text          0x0202ad1c       0xcc /usr/local/openravenscar/sparc-ork-elf/lib/libc.a(strncmp.o)
                0x0202ad1c                strncmp
 .text          0x0202ade8       0xd4 /usr/local/openravenscar/sparc-ork-elf/lib/libc.a(strncpy.o)
                0x0202ade8                strncpy
 .text          0x0202aebc       0x68 /usr/local/openravenscar/sparc-ork-elf/lib/libc.a(strstr.o)
                0x0202aebc                strstr
 .text          0x0202af24      0x1f8 /usr/local/openravenscar/sparc-ork-elf/lib/libc.a(strtol.o)
                0x0202b0f8                strtol
                0x0202af24                _strtol_r
 .text          0x0202b11c     0x19c4 /usr/local/openravenscar/sparc-ork-elf/lib/libc.a(vfprintf.o)
                0x0202b220                _vfprintf_r
                0x0202b200                vfprintf
 .text          0x0202cae0      0xf30 /usr/local/openravenscar/sparc-ork-elf/lib/libc.a(vfscanf.o)
                0x0202cae0                __svfscanf
                0x0202d930                __sccl
 .text          0x0202da10      0x10c /usr/local/openravenscar/sparc-ork-elf/lib/libc.a(wbuf.o)
                0x0202da10                __swbuf
 .text          0x0202db1c      0x10c /usr/local/openravenscar/sparc-ork-elf/lib/libc.a(wsetup.o)
                0x0202db1c                __swsetup
 .text          0x0202dc28       0x18 /usr/local/openravenscar/sparc-ork-elf/lib/libc.a(atof.o)
                0x0202dc28                atof
 .text          0x0202dc40     0x1250 /usr/local/openravenscar/sparc-ork-elf/lib/libc.a(dtoa.o)
                0x0202de2c                _dtoa_r
 .text          0x0202ee90       0x10 /usr/local/openravenscar/sparc-ork-elf/lib/libc.a(envlock.o)
                0x0202ee98                __env_unlock
                0x0202ee90                __env_lock
 .text          0x0202eea0       0xf0 /usr/local/openravenscar/sparc-ork-elf/lib/libc.a(fflush.o)
                0x0202eea0                fflush
 .text          0x0202ef90      0x228 /usr/local/openravenscar/sparc-ork-elf/lib/libc.a(findfp.o)
                0x0202f148                __sinit
                0x0202efec                __sfmoreglue
                0x0202f130                _cleanup
                0x0202f114                _cleanup_r
                0x0202f044                __sfp
 .text          0x0202f1b8       0xcc /usr/local/openravenscar/sparc-ork-elf/lib/libc.a(fread.o)
                0x0202f1b8                fread
 .text          0x0202f284      0x3c0 /usr/local/openravenscar/sparc-ork-elf/lib/libc.a(freer.o)
                0x0202f284                _free_r
                0x0202f520                _malloc_trim_r
 .text          0x0202f644      0x380 /usr/local/openravenscar/sparc-ork-elf/lib/libc.a(fvwrite.o)
                0x0202f644                __sfvwrite
 .text          0x0202f9c4       0x60 /usr/local/openravenscar/sparc-ork-elf/lib/libc.a(fwalk.o)
                0x0202f9c4                _fwalk
 .text          0x0202fa24       0xa4 /usr/local/openravenscar/sparc-ork-elf/lib/libc.a(locale.o)
                0x0202fa24                _setlocale_r
                0x0202fa84                _localeconv_r
                0x0202fa90                setlocale
                0x0202fab0                localeconv
 .text          0x0202fac8      0x144 /usr/local/openravenscar/sparc-ork-elf/lib/libc.a(makebuf.o)
                0x0202fac8                __smakebuf
 .text          0x0202fc0c       0x58 /usr/local/openravenscar/sparc-ork-elf/lib/libc.a(mbtowc_r.o)
                0x0202fc0c                _mbtowc_r
 .text          0x0202fc64       0xd4 /usr/local/openravenscar/sparc-ork-elf/lib/libc.a(memchr.o)
                0x0202fc64                memchr
 .text          0x0202fd38      0x110 /usr/local/openravenscar/sparc-ork-elf/lib/libc.a(memmove.o)
                0x0202fd38                memmove
 .text          0x0202fe48      0xd14 /usr/local/openravenscar/sparc-ork-elf/lib/libc.a(mprec.o)
                0x02030b10                _mprec_log10
                0x020300bc                _hi0bits
                0x0202fe48                _Balloc
                0x0203094c                _d2b
                0x0203022c                _multiply
                0x02030a80                _ratio
                0x0202fffc                _s2b
                0x02030208                _i2b
                0x0203013c                _lo0bits
                0x020305fc                __mcmp
                0x02030418                _pow5mult
                0x020307c0                _ulp
                0x0203084c                _b2d
                0x0202ff18                _multadd
                0x02030664                __mdiff
                0x02030500                _lshift
                0x0202fee0                _Bfree
 .text          0x02030b5c      0x19c /usr/local/openravenscar/sparc-ork-elf/lib/libc.a(refill.o)
                0x02030b70                __srefill
 .text          0x02030cf8       0x38 /usr/local/openravenscar/sparc-ork-elf/lib/libc.a(s_isinf.o)
                0x02030cf8                isinf
 .text          0x02030d30      0x104 /usr/local/openravenscar/sparc-ork-elf/lib/libc.a(stdio.o)
                0x02030dcc                __sseek
                0x02030d30                __sread
                0x02030e1c                __sclose
                0x02030d7c                __swrite
 .text          0x02030e34      0xedc /usr/local/openravenscar/sparc-ork-elf/lib/libc.a(strtod.o)
                0x02030e34                _strtod_r
                0x02031cf4                strtodf
                0x02031cd4                strtod
 .text          0x02031d10      0x1d8 /usr/local/openravenscar/sparc-ork-elf/lib/libc.a(strtoul.o)
                0x02031ec4                strtoul
                0x02031d10                _strtoul_r
 .text          0x02031ee8      0x228 /usr/local/openravenscar/sparc-ork-elf/lib/libc.a(ungetc.o)
                0x02031f98                ungetc
                0x02031ee8                __submore
 .text          0x02032110       0x3c /usr/local/openravenscar/sparc-ork-elf/lib/libc.a(writer.o)
                0x02032110                _write_r
 .text          0x0203214c       0xa8 /usr/local/openravenscar/sparc-ork-elf/lib/libc.a(callocr.o)
                0x0203214c                _calloc_r
 .text          0x020321f4       0x34 /usr/local/openravenscar/sparc-ork-elf/lib/libc.a(closer.o)
                0x020321f4                _close_r
 .text          0x02032228       0x38 /usr/local/openravenscar/sparc-ork-elf/lib/libc.a(fstatr.o)
                0x02032228                _fstat_r
 .text          0x02032260       0x3c /usr/local/openravenscar/sparc-ork-elf/lib/libc.a(lseekr.o)
                0x02032260                _lseek_r
 .text          0x0203229c       0x3c /usr/local/openravenscar/sparc-ork-elf/lib/libc.a(readr.o)
                0x0203229c                _read_r
 .text          0x020322d8      0x134 /usr/local/openravenscar/sparc-ork-elf/lib/libork.a(ada_exceptions.o)
                0x020322d8                Instruction_Access_Exception
                0x020323b4                Division_By_Zero
                0x02032388                Stack_Overflow
                0x02032304                Illegal_Instruction
                0x020323e0                Integer_Overflow
                0x0203235c                FP_Exception
                0x02032330                Address_Not_Aligned
 .text          0x0203240c       0x1c /usr/local/openravenscar/sparc-ork-elf/lib/libork.a(close.o)
                0x0203240c                close
 .text          0x02032428       0x30 /usr/local/openravenscar/sparc-ork-elf/lib/libork.a(execv.o)
                0x02032428                execv
 .text          0x02032458       0x28 /usr/local/openravenscar/sparc-ork-elf/lib/libork.a(fork.o)
                0x02032458                fork
 .text          0x02032480       0x30 /usr/local/openravenscar/sparc-ork-elf/lib/libork.a(fstat.o)
                0x02032480                fstat
 .text          0x020324b0       0x30 /usr/local/openravenscar/sparc-ork-elf/lib/libork.a(getcwd.o)
                0x020324b0                getcwd
 .text          0x020324e0       0x30 /usr/local/openravenscar/sparc-ork-elf/lib/libork.a(getpid.o)
                0x020324e0                getpid
                0x020324f8                getppid
 .text          0x02032510       0x84 /usr/local/openravenscar/sparc-ork-elf/lib/libork.a(isatty.o)
                0x02032510                isatty
 .text          0x02032594       0x3c /usr/local/openravenscar/sparc-ork-elf/lib/libork.a(kill.o)
                0x02032594                kill
 .text          0x020325d0       0x30 /usr/local/openravenscar/sparc-ork-elf/lib/libork.a(link.o)
                0x020325d0                link
 .text          0x02032600       0x34 /usr/local/openravenscar/sparc-ork-elf/lib/libork.a(lseek.o)
                0x02032600                lseek
 .text          0x02032634       0x34 /usr/local/openravenscar/sparc-ork-elf/lib/libork.a(open.o)
                0x02032634                open
 .text          0x02032668      0x148 /usr/local/openravenscar/sparc-ork-elf/lib/libork.a(read.o)
                0x02032668                read
 .text          0x020327b0       0x34 /usr/local/openravenscar/sparc-ork-elf/lib/libork.a(readdir.o)
                0x020327b0                readdir
 .text          0x020327e4       0x20 /usr/local/openravenscar/sparc-ork-elf/lib/libork.a(mkdir.o)
                0x020327e4                mkdir
 .text          0x02032804       0xb0 /usr/local/openravenscar/sparc-ork-elf/lib/libork.a(sbrk.o)
                0x02032804                sbrk
 .text          0x020328b4       0x30 /usr/local/openravenscar/sparc-ork-elf/lib/libork.a(stat.o)
                0x020328b4                stat
 .text          0x020328e4       0x2c /usr/local/openravenscar/sparc-ork-elf/lib/libork.a(unlink.o)
                0x020328e4                unlink
 .text          0x02032910       0x2c /usr/local/openravenscar/sparc-ork-elf/lib/libork.a(wait.o)
                0x02032910                wait
 .text          0x0203293c       0xec /usr/local/openravenscar/sparc-ork-elf/lib/libork.a(write.o)
                0x0203293c                write
 *fill*         0x02032a28        0x8
                0x02032a30                .=ALIGN(0x10)
 *(.eh_frame)
 .eh_frame      0x02032a30      0x11c /usr/local/openravenscar/lib/gcc-lib/sparc-ork-elf/2.8.1/adalib/libgnat.a(a-init.o)
 .eh_frame      0x02032b4c       0x24 /usr/local/openravenscar/lib/gcc-lib/sparc-ork-elf/2.8.1/libgcc.a(__dummy.o)
 .eh_frame      0x02032b70       0x24 /usr/local/openravenscar/lib/gcc-lib/sparc-ork-elf/2.8.1/libgcc.a(_ashldi3.o)
 .eh_frame      0x02032b94       0x24 /usr/local/openravenscar/lib/gcc-lib/sparc-ork-elf/2.8.1/libgcc.a(_cmpdi2.o)
 .eh_frame      0x02032bb8       0x2c /usr/local/openravenscar/lib/gcc-lib/sparc-ork-elf/2.8.1/libgcc.a(_divdi3.o)
 .eh_frame      0x02032be4       0x2c /usr/local/openravenscar/lib/gcc-lib/sparc-ork-elf/2.8.1/libgcc.a(_fixsfdi.o)
 .eh_frame      0x02032c10       0x2c /usr/local/openravenscar/lib/gcc-lib/sparc-ork-elf/2.8.1/libgcc.a(_fixunsdfdi.o)
 .eh_frame      0x02032c3c       0x2c /usr/local/openravenscar/lib/gcc-lib/sparc-ork-elf/2.8.1/libgcc.a(_fixunssfdi.o)
 .eh_frame      0x02032c68       0x28 /usr/local/openravenscar/lib/gcc-lib/sparc-ork-elf/2.8.1/libgcc.a(_floatdidf.o)
 .eh_frame      0x02032c90       0x28 /usr/local/openravenscar/lib/gcc-lib/sparc-ork-elf/2.8.1/libgcc.a(_floatdisf.o)
 .eh_frame      0x02032cb8       0x24 /usr/local/openravenscar/lib/gcc-lib/sparc-ork-elf/2.8.1/libgcc.a(_lshrdi3.o)
 .eh_frame      0x02032cdc       0x2c /usr/local/openravenscar/lib/gcc-lib/sparc-ork-elf/2.8.1/libgcc.a(_muldi3.o)
 .eh_frame      0x02032d08       0x2c /usr/local/openravenscar/lib/gcc-lib/sparc-ork-elf/2.8.1/libgcc.a(_udivdi3.o)
 .eh_frame      0x02032d34       0x2c /usr/local/openravenscar/lib/gcc-lib/sparc-ork-elf/2.8.1/libgcc.a(_umoddi3.o)
 .eh_frame      0x02032d60      0x11c /usr/local/openravenscar/lib/gcc-lib/sparc-ork-elf/2.8.1/libgcc.a(frame.o)
 *fill*         0x02032e7c        0x4
                0x02032e80                .=ALIGN(0x10)
 *(.rodata)
 .rodata        0x02032e80       0x24 ./objetos_protegidos.o
 *fill*         0x02032ea4        0x4
 .rodata        0x02032ea8        0x9 ./pulse_interrupt.o
 *fill*         0x02032eb1        0x7
 .rodata        0x02032eb8      0x23c ./devices.o
 *fill*         0x020330f4        0x4
 .rodata        0x020330f8      0x107 ./actuadores.o
 *fill*         0x020331ff        0x1
 .rodata        0x02033200       0x7c ./modo_interrupcion.o
 *fill*         0x0203327c        0x4
 .rodata        0x02033280       0x48 ./sensores.o
 .rodata        0x020332c8       0x4c ./workload.o
 *fill*         0x02033314        0x4
 .rodata        0x02033318       0x52 ./tools.o
 *fill*         0x0203336a        0x6
 .rodata        0x02033370       0x7c ./add.o
 .rodata        0x020333ec        0x8 /usr/local/openravenscar/lib/gcc-lib/sparc-ork-elf/2.8.1/adalib/libgnarl.a(a-reatim.o)
 .rodata        0x020333f4        0x8 /usr/local/openravenscar/lib/gcc-lib/sparc-ork-elf/2.8.1/adalib/libgnarl.a(a-retide.o)
 *fill*         0x020333fc        0x4
 .rodata        0x02033400       0xb8 /usr/local/openravenscar/lib/gcc-lib/sparc-ork-elf/2.8.1/adalib/libgnarl.a(s-interr.o)
 .rodata        0x020334b8       0x24 /usr/local/openravenscar/lib/gcc-lib/sparc-ork-elf/2.8.1/adalib/libgnarl.a(s-taprob.o)
 *fill*         0x020334dc        0x4
 .rodata        0x020334e0       0xd0 /usr/local/openravenscar/lib/gcc-lib/sparc-ork-elf/2.8.1/adalib/libgnarl.a(s-taprop.o)
 .rodata        0x020335b0       0x50 /usr/local/openravenscar/lib/gcc-lib/sparc-ork-elf/2.8.1/adalib/libgnarl.a(s-tarest.o)
 .rodata        0x02033600      0x14a /usr/local/openravenscar/lib/gcc-lib/sparc-ork-elf/2.8.1/adalib/libgnarl.a(s-tasdeb.o)
 *fill*         0x0203374a        0x2
 .rodata        0x0203374c      0x300 /usr/local/openravenscar/lib/gcc-lib/sparc-ork-elf/2.8.1/adalib/libgnarl.a(s-taskin.o)
 *fill*         0x02033a4c        0x4
 .rodata        0x02033a50       0x60 /usr/local/openravenscar/lib/gcc-lib/sparc-ork-elf/2.8.1/adalib/libgnarl.a(s-tposen.o)
 .rodata        0x02033ab0        0x8 /usr/local/openravenscar/lib/gcc-lib/sparc-ork-elf/2.8.1/adalib/libgnarl.a(kernel-interrupts.o)
 .rodata        0x02033ab8        0x4 /usr/local/openravenscar/lib/gcc-lib/sparc-ork-elf/2.8.1/adalib/libgnarl.a(kernel-threads-queues.o)
 .rodata        0x02033abc       0x7c /usr/local/openravenscar/lib/gcc-lib/sparc-ork-elf/2.8.1/adalib/libgnarl.a(kernel-peripherals.o)
 .rodata        0x02033b38      0x184 /usr/local/openravenscar/lib/gcc-lib/sparc-ork-elf/2.8.1/adalib/libgnat.a(a-except.o)
 *fill*         0x02033cbc        0x4
 .rodata        0x02033cc0        0xd /usr/local/openravenscar/lib/gcc-lib/sparc-ork-elf/2.8.1/adalib/libgnat.a(a-finali.o)
 *fill*         0x02033ccd        0x3
 .rodata        0x02033cd0      0x82c /usr/local/openravenscar/lib/gcc-lib/sparc-ork-elf/2.8.1/adalib/libgnat.a(a-nuelfu.o)
 *fill*         0x020344fc        0x4
 .rodata        0x02034500       0x42 /usr/local/openravenscar/lib/gcc-lib/sparc-ork-elf/2.8.1/adalib/libgnat.a(a-tags.o)
 *fill*         0x02034542        0x6
 .rodata        0x02034548        0xd /usr/local/openravenscar/lib/gcc-lib/sparc-ork-elf/2.8.1/adalib/libgnat.a(g-except.o)
 *fill*         0x02034555        0x3
 .rodata        0x02034558       0xab /usr/local/openravenscar/lib/gcc-lib/sparc-ork-elf/2.8.1/adalib/libgnat.a(i-c.o)
 *fill*         0x02034603        0x5
 .rodata        0x02034608       0x24 /usr/local/openravenscar/lib/gcc-lib/sparc-ork-elf/2.8.1/adalib/libgnat.a(s-arit64.o)
 *fill*         0x0203462c        0x4
 .rodata        0x02034630        0x5 /usr/local/openravenscar/lib/gcc-lib/sparc-ork-elf/2.8.1/adalib/libgnat.a(s-exctab.o)
 *fill*         0x02034635        0x3
 .rodata        0x02034638       0x40 /usr/local/openravenscar/lib/gcc-lib/sparc-ork-elf/2.8.1/adalib/libgnat.a(s-exnflt.o)
 .rodata        0x02034678       0xd0 /usr/local/openravenscar/lib/gcc-lib/sparc-ork-elf/2.8.1/adalib/libgnat.a(s-fatflt.o)
                0x020346b0                system__fat_flt__fat_float__r_neg_power
                0x02034678                system__fat_flt__fat_float__log_power
                0x02034694                system__fat_flt__fat_float__r_power
 .rodata        0x02034748       0x68 /usr/local/openravenscar/lib/gcc-lib/sparc-ork-elf/2.8.1/adalib/libgnat.a(s-finimp.o)
 .rodata        0x020347b0       0x47 /usr/local/openravenscar/lib/gcc-lib/sparc-ork-elf/2.8.1/adalib/libgnat.a(s-finroo.o)
 *fill*         0x020347f7        0x1
 .rodata        0x020347f8        0x8 /usr/local/openravenscar/lib/gcc-lib/sparc-ork-elf/2.8.1/adalib/libgnat.a(s-imgint.o)
 .rodata        0x02034800       0x58 /usr/local/openravenscar/lib/gcc-lib/sparc-ork-elf/2.8.1/adalib/libgnat.a(s-imgrea.o)
 .rodata        0x02034858        0x8 /usr/local/openravenscar/lib/gcc-lib/sparc-ork-elf/2.8.1/adalib/libgnat.a(s-imguns.o)
 .rodata        0x02034860       0xb8 /usr/local/openravenscar/lib/gcc-lib/sparc-ork-elf/2.8.1/adalib/libgnat.a(s-powtab.o)
                0x02034860                system__powten_table__powten
 .rodata        0x02034918       0x50 /usr/local/openravenscar/lib/gcc-lib/sparc-ork-elf/2.8.1/adalib/libgnat.a(s-stache.o)
 .rodata        0x02034968       0x70 /usr/local/openravenscar/lib/gcc-lib/sparc-ork-elf/2.8.1/adalib/libgnat.a(s-stalib.o)
                0x02034968                system__standard_library__constraint_error_name
 .rodata        0x020349d8      0x158 /usr/local/openravenscar/lib/gcc-lib/sparc-ork-elf/2.8.1/adalib/libgnat.a(s-stratt.o)
 .rodata        0x02034b30        0xb /usr/local/openravenscar/lib/gcc-lib/sparc-ork-elf/2.8.1/adalib/libgnat.a(a-cio.o)
 *fill*         0x02034b3b        0x5
 .rodata        0x02034b40       0x77 /usr/local/openravenscar/lib/gcc-lib/sparc-ork-elf/2.8.1/adalib/libgnat.a(a-raise.o)
 *fill*         0x02034bb7        0x1
 .rodata        0x02034bb8       0x50 /usr/local/openravenscar/lib/gcc-lib/sparc-ork-elf/2.8.1/adalib/libgnat.a(a-init.o)
 .rodata        0x02034c08      0x188 /usr/local/openravenscar/lib/gcc-lib/sparc-ork-elf/2.8.1/adalib/libgnat.a(s-fatllf.o)
                0x02034c08                system__fat_llf__fat_long_long_float__log_power
                0x02034c28                system__fat_llf__fat_long_long_float__r_power
                0x02034c60                system__fat_llf__fat_long_long_float__r_neg_power
 .rodata        0x02034d90        0x8 /usr/local/openravenscar/lib/gcc-lib/sparc-ork-elf/2.8.1/adalib/libgnat.a(s-imgllu.o)
 .rodata        0x02034d98       0x35 /usr/local/openravenscar/lib/gcc-lib/sparc-ork-elf/2.8.1/adalib/libgnat.a(a-adaint.o)
 *fill*         0x02034dcd        0x3
 .rodata        0x02034dd0       0xd0 /usr/local/openravenscar/sparc-ork-elf/lib/libm.a(s_atan.o)
 .rodata        0x02034ea0       0x30 /usr/local/openravenscar/sparc-ork-elf/lib/libm.a(s_tanh.o)
 .rodata        0x02034ed0       0x10 /usr/local/openravenscar/sparc-ork-elf/lib/libm.a(w_acos.o)
 .rodata        0x02034ee0       0x10 /usr/local/openravenscar/sparc-ork-elf/lib/libm.a(w_asin.o)
 .rodata        0x02034ef0       0x28 /usr/local/openravenscar/sparc-ork-elf/lib/libm.a(w_exp.o)
 .rodata        0x02034f18       0x10 /usr/local/openravenscar/sparc-ork-elf/lib/libm.a(w_log.o)
 .rodata        0x02034f28       0x18 /usr/local/openravenscar/sparc-ork-elf/lib/libm.a(w_pow.o)
 .rodata        0x02034f40       0x10 /usr/local/openravenscar/sparc-ork-elf/lib/libm.a(w_sqrt.o)
 .rodata        0x02034f50       0xf0 /usr/local/openravenscar/sparc-ork-elf/lib/libm.a(e_acos.o)
 .rodata        0x02035040       0xf8 /usr/local/openravenscar/sparc-ork-elf/lib/libm.a(e_asin.o)
 .rodata        0x02035138       0xf8 /usr/local/openravenscar/sparc-ork-elf/lib/libm.a(e_exp.o)
 .rodata        0x02035230       0xd8 /usr/local/openravenscar/sparc-ork-elf/lib/libm.a(e_log.o)
 .rodata        0x02035308      0x208 /usr/local/openravenscar/sparc-ork-elf/lib/libm.a(e_pow.o)
 .rodata        0x02035510      0x228 /usr/local/openravenscar/sparc-ork-elf/lib/libm.a(e_rem_pio2.o)
 .rodata        0x02035738       0x10 /usr/local/openravenscar/sparc-ork-elf/lib/libm.a(e_sqrt.o)
 .rodata        0x02035748       0x80 /usr/local/openravenscar/sparc-ork-elf/lib/libm.a(k_cos.o)
 .rodata        0x020357c8       0xa0 /usr/local/openravenscar/sparc-ork-elf/lib/libm.a(k_rem_pio2.o)
 .rodata        0x02035868       0x70 /usr/local/openravenscar/sparc-ork-elf/lib/libm.a(k_sin.o)
 .rodata        0x020358d8       0xa8 /usr/local/openravenscar/sparc-ork-elf/lib/libm.a(k_tan.o)
 .rodata        0x02035980      0x110 /usr/local/openravenscar/sparc-ork-elf/lib/libm.a(s_expm1.o)
 .rodata        0x02035a90       0x18 /usr/local/openravenscar/sparc-ork-elf/lib/libm.a(s_floor.o)
 .rodata        0x02035aa8        0x8 /usr/local/openravenscar/sparc-ork-elf/lib/libm.a(s_infconst.o)
                0x02035aa8                __infinity
 .rodata        0x02035ab0        0x4 /usr/local/openravenscar/sparc-ork-elf/lib/libm.a(s_lib_ver.o)
                0x02035ab0                __fdlib_version
 *fill*         0x02035ab4        0x4
 .rodata        0x02035ab8       0x10 /usr/local/openravenscar/sparc-ork-elf/lib/libm.a(s_rint.o)
 .rodata        0x02035ac8       0x38 /usr/local/openravenscar/sparc-ork-elf/lib/libm.a(s_scalbn.o)
 .rodata        0x02035b00      0x100 /usr/local/openravenscar/lib/gcc-lib/sparc-ork-elf/2.8.1/libgcc.a(_divdi3.o)
 .rodata        0x02035c00        0x4 /usr/local/openravenscar/lib/gcc-lib/sparc-ork-elf/2.8.1/libgcc.a(_fixsfdi.o)
 *fill*         0x02035c04        0x4
 .rodata        0x02035c08       0x18 /usr/local/openravenscar/lib/gcc-lib/sparc-ork-elf/2.8.1/libgcc.a(_fixunsdfdi.o)
 .rodata        0x02035c20       0x18 /usr/local/openravenscar/lib/gcc-lib/sparc-ork-elf/2.8.1/libgcc.a(_fixunssfdi.o)
 .rodata        0x02035c38       0x10 /usr/local/openravenscar/lib/gcc-lib/sparc-ork-elf/2.8.1/libgcc.a(_floatdidf.o)
 .rodata        0x02035c48       0x10 /usr/local/openravenscar/lib/gcc-lib/sparc-ork-elf/2.8.1/libgcc.a(_floatdisf.o)
 .rodata        0x02035c58      0x100 /usr/local/openravenscar/lib/gcc-lib/sparc-ork-elf/2.8.1/libgcc.a(_udivdi3.o)
 .rodata        0x02035d58      0x100 /usr/local/openravenscar/lib/gcc-lib/sparc-ork-elf/2.8.1/libgcc.a(_umoddi3.o)
 .rodata        0x02035e58        0xb /usr/local/openravenscar/lib/gcc-lib/sparc-ork-elf/2.8.1/libgcc.a(frame.o)
 *fill*         0x02035e63        0x5
 .rodata        0x02035e68        0x2 /usr/local/openravenscar/sparc-ork-elf/lib/libc.a(impure.o)
 *fill*         0x02035e6a        0x2
 .rodata        0x02035e6c       0x68 /usr/local/openravenscar/sparc-ork-elf/lib/libc.a(lcltime_r.o)
 *fill*         0x02035ed4        0x4
 .rodata        0x02035ed8       0xa8 /usr/local/openravenscar/sparc-ork-elf/lib/libc.a(vfprintf.o)
 .rodata        0x02035f80       0x22 /usr/local/openravenscar/sparc-ork-elf/lib/libc.a(vfscanf.o)
 *fill*         0x02035fa2        0x6
 .rodata        0x02035fa8      0x101 /usr/local/openravenscar/sparc-ork-elf/lib/libc.a(ctype_.o)
                0x02035fa8                _ctype_
 *fill*         0x020360a9        0x7
 .rodata        0x020360b0       0x78 /usr/local/openravenscar/sparc-ork-elf/lib/libc.a(dtoa.o)
 .rodata        0x02036128       0x42 /usr/local/openravenscar/sparc-ork-elf/lib/libc.a(locale.o)
 *fill*         0x0203616a        0x6
 .rodata        0x02036170      0x138 /usr/local/openravenscar/sparc-ork-elf/lib/libc.a(mprec.o)
                0x02036270                __mprec_tinytens
                0x02036180                __mprec_tens
                0x02036248                __mprec_bigtens
 .rodata        0x020362a8       0x48 /usr/local/openravenscar/sparc-ork-elf/lib/libc.a(strtod.o)
 .rodata        0x020362f0       0xb1 /usr/local/openravenscar/sparc-ork-elf/lib/libork.a(ada_exceptions.o)
 *fill*         0x020363a1        0xf
                0x020363b0                .=ALIGN(0x10)
                0x020363b0                text_end=.

.data           0x020363b0     0x32fc
                0x020363b0                data_start=.
 *(.data)
 .data          0x020363b0        0x8 /usr/local/openravenscar/sparc-ork-elf/lib/ada_crt0.o
 .data          0x020363b8      0x24c b~main.o
                0x020363dc                ada__exceptionsS
                0x02036420                system__secondary_stackB
                0x02036544                devicesS
                0x02036530                system__tasking__debugB
                0x0203645c                system__arith_64B
                0x02036560                system__img_realB
                0x020363cc                addS
                0x02036428                system__parametersB
                0x02036464                gnat__exceptionsS
                0x02036480                system__finalization_rootS
                0x02036410                system__machine_state_operationsB
                0x020364dc                kernel__interruptsS
                0x02036534                system__tasking__debugS
                0x020364b8                kernel__threads__protectionS
                0x020365a8                system__exn_fltS
                0x02036448                ada__real_time__delaysB
                0x020364f4                system__finalization_implementationS
                0x020365bc                objetos_protegidosS
                0x02036460                system__arith_64S
                0x02036490                system__unsigned_typesS
                0x020365c4                system__tasking__restricted__stagesS
                0x020364bc                kernel__cpu_primitivesB
                0x02036520                system__taskingB
                0x020363f8                kernel__parametersS
                0x020365d8                ada__interruptsS
                0x02036538                interfaces__cB
                0x02036554                ada__characters__latin_1S
                0x02036518                system__os_primitivesB
                0x020365c8                system__tasking__restrictedS
                0x0203658c                toolsS
                0x02036500                system__task_primitives__operationsB
                0x020363bc                mainB
                0x02036440                system__tracebackB
                0x02036558                system__img_intB
                0x020363c0                system__standard_libraryB
                0x02036494                system__task_primitivesS
                0x02036408                gnat__htableS
                0x02036568                system__fat_llfS
                0x02036550                ada__charactersS
                0x020364c0                kernel__cpu_primitivesS
                0x020364d8                kernel__interruptsB
                0x020365a0                ada__numerics__elementary_functionsS
                0x020363d0                actuadoresB
                0x020363c4                system__standard_libraryS
                0x0203642c                system__parametersS
                0x02036594                workloadS
                0x02036418                system__storage_elementsB
                0x02036508                kernel__threads__atcbB
                0x0203641c                system__storage_elementsS
                0x020364d0                kernel__timeB
                0x020363e4                gnatS
                0x020364c4                system__machine_codeS
                0x020365e8                system__tasking__protected_objects__single_entryS
                0x020365e4                system__tasking__protected_objects__single_entryB
                0x0203644c                ada__real_time__delaysS
                0x02036510                system__os_interfaceB
                0x0203655c                system__img_intS
                0x020364ac                kernel__peripheralsS
                0x0203656c                system__img_lluB
                0x02036528                system__task_infoB
                0x020363e8                gnat__heap_sort_aB
                0x02036598                ada__numericsS
                0x02036504                system__task_primitives__operationsS
                0x0203652c                system__task_infoS
                0x020365b4                system__fat_fltS
                0x0203657c                system__powten_tableS
                0x02036454                ada__real_timeS
                0x020365dc                system__interruptsB
                0x020365e0                system__interruptsS
                0x020364cc                kernel__threads__queuesS
                0x02036584                system__tasking__protected_objectsS
                0x020363f0                systemS
                0x02036488                system__stream_attributesS
                0x020364d4                kernel__timeS
                0x020364f8                system__string_ops_concat_3B
                0x020364c8                kernel__threads__queuesB
                0x0203653c                interfaces(char, signed)
                0x0203640c                system__exceptionsS
                0x020364a4                kernel__memoryS
                0x020363f4                kernelS
                0x02036450                ada__real_timeB
                0x02036478                system__string_opsS
                0x020364e8                ada__finalizationB
                0x02036548                kernel__serial_outputB
                0x02036498                kernel__threadsB
                0x02036438                system__stack_checkingB
                0x02036414                system__machine_state_operationsS
                0x020364a0                kernel__memoryB
                0x0203647c                system__finalization_rootB
                0x020365d4                ada__interruptsB
                0x0203650c                kernel__threads__atcbS
                0x020365ec                ada__interrupts__namesS
                0x020364b4                kernel__threads__protectionB
                0x02036600                sensoresS
                0x020364ec                ada__finalizationS
                0x020364a8                kernel__peripheralsB
                0x020363ec                gnat__heap_sort_aS
                0x020365a4                ada__numerics__auxS
                0x02036590                workloadB
                0x02036400                system__exception_tableS
                0x02036470                ada__tagsS
                0x020365d0                modo_interrupcionS
                0x0203651c                system__os_primitivesS
                0x02036564                system__img_realS
                0x0203659c                ada__numerics__elementary_functionsB
                0x02036484                system__stream_attributesB
                0x02036468                ada__streamsS
                0x0203646c                ada__tagsB
                0x020363d4                actuadoresS
                0x02036474                system__string_opsB
                0x02036570                system__img_lluS
                0x02036540                devicesB
                0x02036578                system__img_unsS
                0x020364e4                ada__finalization__list_controllerS
                0x020365f8                force_external_interrupt_2B
                0x0203649c                kernel__threadsS
                0x020365b8                objetos_protegidosB
                0x02036574                system__img_unsB
                0x02036404                gnat__htableB
                0x020364fc                system__string_ops_concat_3S
                0x02036444                system__tracebackS
                0x0203654c                kernel__serial_outputS
                0x02036430                system__soft_linksB
                0x020364e0                ada__finalization__list_controllerB
                0x0203643c                system__stack_checkingS
                0x0203648c                ada__io_exceptionsS
                0x020363e0                adaS
                0x02036524                system__taskingS
                0x020364b0                kernel__peripherals__registersS
                0x020363d8                ada__exceptionsB
                0x020363b8                ada_main_E
                0x020365c0                system__tasking__restricted__stagesB
                0x02036580                system__tasking__protected_objectsB
                0x020365fc                sensoresB
                0x02036424                system__secondary_stackS
                0x020364f0                system__finalization_implementationB
                0x02036514                system__os_interfaceS
                0x02036434                system__soft_linksS
                0x020365f0                pulse_interruptB
                0x020365f4                pulse_interruptS
                0x020363fc                system__exception_tableB
                0x020365cc                modo_interrupcionB
                0x020363c8                addB
                0x02036458                interfacesS
                0x02036588                toolsB
                0x020365ac                system__exn_genB
                0x020365b0                system__exn_genS
 .data          0x02036604       0x10 ./objetos_protegidos.o
                0x02036608                objetos_protegidos__mT
                0x02036604                objetos_protegidos_E
 .data          0x02036614       0x10 ./pulse_interrupt.o
                0x02036614                pulse_interrupt_E
                0x02036618                pulse_interrupt__priority_of_external_interrupts_2
                0x02036620                pulse_interrupt__interruptTKZ
                0x0203661c                pulse_interrupt__interruptTKE
 .data          0x02036624     0x1ab0 ./devices.o
                0x02036628                devices__number_electrodes
                0x02036624                devices_E
                0x0203712c                devices__eeg_simulation
                0x02036e04                devices__eyes_samples_indexT
                0x0203694c                devices__headposition_samples_indexT
                0x02036954                devices__headposition_simulation
                0x02036e0c                devices__eyes_simulation
                0x020380cc                devices__light_statesT
                0x02036c74                devices__steering_simulation
                0x020367bc                devices__distance_simulation
                0x0203662c                devices__speed_simulation
 .data          0x020380d4       0x10 ./actuadores.o
                0x020380dc                actuadores__riesgosE
                0x020380d5                actuadores__displayE
                0x020380d8                actuadores__displayZ
                0x020380e0                actuadores__riesgosZ
                0x020380d4                actuadores_E
 .data          0x020380e4       0x14 ./modo_interrupcion.o
                0x020380e8                modo_interrupcion__interrupt_handlerTA
                0x020380f0                modo_interrupcion__modoE
                0x020380f4                modo_interrupcion__modoZ
                0x020380e4                modo_interrupcion_E
 .data          0x020380f8       0x18 ./sensores.o
                0x020380fc                sensores__cabezaZ
                0x02038108                sensores__volanteE
                0x020380f8                sensores_E
                0x020380f9                sensores__cabezaE
                0x0203810c                sensores__volanteZ
                0x02038100                sensores__distanciaE
                0x02038104                sensores__distanciaZ
 .data          0x02038110       0x38 ./workload.o
                0x02038134                workload__workload_failure
                0x02038110                workload_E
                0x02038118                workload__workload_failureE
 .data          0x02038148        0x1 ./tools.o
                0x02038148                tools_E
 .data          0x02038149        0x1 ./add.o
                0x02038149                add_E
 *fill*         0x0203814a        0x6
 .data          0x02038150       0x38 /usr/local/openravenscar/lib/gcc-lib/sparc-ork-elf/2.8.1/adalib/libgnarl.a(a-reatim.o)
                0x02038180                ada__real_time__tick
                0x02038168                ada__real_time__time_span_last
                0x02038158                ada__real_time__time_last
                0x02038160                ada__real_time__time_span_first
                0x02038170                ada__real_time__time_span_zero
                0x02038150                ada__real_time__time_first
                0x02038178                ada__real_time__time_span_unit
 .data          0x02038188       0x48 /usr/local/openravenscar/lib/gcc-lib/sparc-ork-elf/2.8.1/adalib/libgnarl.a(s-interr.o)
                0x020381cc                system__interrupts__registered_handler_tail
                0x02038198                system__interrupts__static_interrupt_protectionE
                0x02038188                system__interrupts__default_interrupt_priority
                0x0203818c                system__interrupts__static_interrupt_protectionP
                0x020381c8                system__interrupts__registered_handler_head
                0x02038190                system__interrupts__static_interrupt_protectionF
 .data          0x020381d0       0x3c /usr/local/openravenscar/lib/gcc-lib/sparc-ork-elf/2.8.1/adalib/libgnarl.a(s-osinte.o)
                0x020381dc                system__os_interface__external_interrupt_1_priority
                0x02038208                system__os_interface__masked_hardware_errors_priority
                0x020381e8                system__os_interface__real_time_clock_priority
                0x020381f8                system__os_interface__uart_error_priority
                0x020381e4                system__os_interface__watch_dog_time_out_priority
                0x02038204                system__os_interface__correctable_error_in_memory_priority
                0x020381f4                system__os_interface__dma_access_error_priority
                0x020381ec                system__os_interface__general_purpose_timer_priority
                0x020381d8                system__os_interface__external_interrupt_2_priority
                0x020381fc                system__os_interface__uart_b_ready_priority
                0x020381d4                system__os_interface__external_interrupt_3_priority
                0x02038200                system__os_interface__uart_a_ready_priority
                0x020381d0                system__os_interface__external_interrupt_4_priority
                0x020381f0                system__os_interface__dma_time_out_priority
                0x020381e0                system__os_interface__external_interrupt_0_priority
 .data          0x0203820c        0x4 /usr/local/openravenscar/lib/gcc-lib/sparc-ork-elf/2.8.1/adalib/libgnarl.a(s-taprob.o)
                0x0203820c                system__tasking__protected_objects__null_po
 .data          0x02038210       0x34 /usr/local/openravenscar/lib/gcc-lib/sparc-ork-elf/2.8.1/adalib/libgnarl.a(s-taprop.o)
                0x02038210                system__task_primitives__operations__lock_levelT
                0x02038230                system__task_primitives__operations__dummy_task_id
                0x0203822c                system__task_primitives__operations__environment_task_id
                0x02038238                system__task_primitives__operations__next_serial_number
                0x02038228                system__task_primitives__operations__atcb_index
                0x02038240                system__task_primitives__operations__exit_task_procedure
 .data          0x02038244       0xb8 /usr/local/openravenscar/lib/gcc-lib/sparc-ork-elf/2.8.1/adalib/libgnarl.a(s-taskin.o)
                0x020382c8                system__tasking__call_modesT
                0x020382c4                system__tasking__null_task
                0x02038244                system__tasking__environment_task_level
                0x0203824c                system__tasking__library_task_level
                0x02038264                system__tasking__entry_call_stateT
                0x020382bc                system__tasking__interrupt_manager_id
                0x02038250                system__tasking__unspecified_priority
                0x02038254                system__tasking__priority_not_boosted
                0x0203827c                system__tasking__task_statesT
                0x02038258                system__tasking__max_atc_nesting
                0x0203825c                system__tasking__atc_level_infinity
                0x02038260                system__tasking__max_select
                0x020382c0                system__tasking__all_tasks_list
                0x02038248                system__tasking__independent_task_level
                0x020382d8                system__tasking__select_modesT
 *fill*         0x020382fc        0x4
 .data          0x02038300       0x47 /usr/local/openravenscar/lib/gcc-lib/sparc-ork-elf/2.8.1/adalib/libgnarl.a(s-tposen.o)
                0x02038308                system__tasking__protected_objects__single_entry__protection_entryE
                0x02038304                system__tasking__protected_objects__single_entry__protection_entryF
                0x02038300                system__tasking__protected_objects__single_entry__protection_entryP
 *fill*         0x02038347        0x1
 .data          0x02038348        0x4 /usr/local/openravenscar/lib/gcc-lib/sparc-ork-elf/2.8.1/adalib/libgnarl.a(kernel-interrupts.o)
                0x02038348                current_interrupt_priority
 .data          0x0203834c        0x8 /usr/local/openravenscar/lib/gcc-lib/sparc-ork-elf/2.8.1/adalib/libgnarl.a(kernel-threads.o)
                0x02038350                kernel__threads__null_thread_id
                0x0203834c                kernel__threads_E
 .data          0x02038354        0x1 /usr/local/openravenscar/lib/gcc-lib/sparc-ork-elf/2.8.1/adalib/libgnarl.a(kernel-threads-atcb.o)
                0x02038354                kernel__threads__atcb_E
 *fill*         0x02038355        0x3
 .data          0x02038358       0x18 /usr/local/openravenscar/lib/gcc-lib/sparc-ork-elf/2.8.1/adalib/libgnarl.a(kernel-threads-queues.o)
                0x02038364                kernel__threads__queues__environment_thread
                0x0203836c                kernel__threads__queues__head_alarm_id
                0x0203835c                kernel__threads__queues__last_thread_pos
                0x02038360                kernel__threads__queues__dummy_thread
                0x02038358                running_thread
                0x02038368                kernel__threads__queues__head
 .data          0x02038370        0x2 /usr/local/openravenscar/lib/gcc-lib/sparc-ork-elf/2.8.1/adalib/libgnarl.a(kernel-threads-protection.o)
                0x02038370                kernel__threads__protection_E
                0x02038371                kernel__threads__protection__pending_context_switch
 *fill*         0x02038372        0x6
 .data          0x02038378       0x19 /usr/local/openravenscar/lib/gcc-lib/sparc-ork-elf/2.8.1/adalib/libgnarl.a(kernel-time.o)
                0x02038380                ork_tick
                0x02038378                kernel__time_E
 *fill*         0x02038391        0x3
 .data          0x02038394       0x10 /usr/local/openravenscar/lib/gcc-lib/sparc-ork-elf/2.8.1/adalib/libgnarl.a(kernel-memory.o)
                0x0203839c                interrupt_stack
                0x02038394                kernel__memory_E
                0x020383a0                environment_stack
 .data          0x020383a4       0x1c /usr/local/openravenscar/lib/gcc-lib/sparc-ork-elf/2.8.1/adalib/libgnarl.a(kernel-cpu_primitives.o)
                0x020383a4                kernel__cpu_primitives_E
                0x020383b4                kernel__cpu_primitives__psr
                0x020383a8                kernel__cpu_primitives__pc
                0x020383ac                kernel__cpu_primitives__npc
                0x020383bc                kernel__cpu_primitives__protection_end
                0x020383b0                kernel__cpu_primitives__sp
                0x020383b8                kernel__cpu_primitives__protection_begin
 .data          0x020383c0       0x78 /usr/local/openravenscar/lib/gcc-lib/sparc-ork-elf/2.8.1/adalib/libgnarl.a(kernel-peripherals-registers.o)
                0x02038428                kernel__peripherals__registers__interrupt_force
                0x02038430                kernel__peripherals__registers__uart_channel_a
                0x020383f8                kernel__peripherals__registers__uart_channel_a_rx_tx_register_address
                0x020383dc                kernel__peripherals__registers__watchdog_trap_door_set_register_address
                0x02038420                kernel__peripherals__registers__watchdog_trap_door_set
                0x020383d4                kernel__peripherals__registers__general_purpose_timer_scaler_address
                0x0203842c                kernel__peripherals__registers__uart_status
                0x0203840c                kernel__peripherals__registers__real_time_clock_counter
                0x020383f4                kernel__peripherals__registers__interrupt_force_register_address
                0x02038408                kernel__peripherals__registers__test_control
                0x020383f0                kernel__peripherals__registers__interrupt_mask_register_address
                0x020383c0                kernel__peripherals__registers__control_register_address
                0x020383e0                Segment_1_Base
                0x02038400                kernel__peripherals__registers__uart_status_register_address
                0x020383cc                kernel__peripherals__registers__general_purpose_timer_counter_address
                0x02038424                kernel__peripherals__registers__interrupt_mask
                0x020383fc                kernel__peripherals__registers__uart_channel_b_rx_tx_register_address
                0x02038418                kernel__peripherals__registers__general_purpose_timer_scaler
                0x0203841c                kernel__peripherals__registers__timer_control
                0x020383e4                Segment_2_Base
                0x02038414                kernel__peripherals__registers__real_time_clock_scaler
                0x020383d8                kernel__peripherals__registers__timer_control_register_address
                0x02038410                kernel__peripherals__registers__general_purpose_timer_counter
                0x020383e8                Segment_1_End
                0x020383ec                Segment_2_End
                0x020383c4                kernel__peripherals__registers__test_control_register_address
                0x02038434                kernel__peripherals__registers__uart_channel_b
                0x020383c8                kernel__peripherals__registers__real_time_clock_counter_address
                0x020383d0                kernel__peripherals__registers__real_time_clock_scaler_address
                0x02038404                kernel__peripherals__registers__control
 .data          0x02038438       0x70 /usr/local/openravenscar/lib/gcc-lib/sparc-ork-elf/2.8.1/adalib/libgnarl.a(kernel-peripherals.o)
                0x02038478                kernel__peripherals__masked_hardware_errors
                0x02038438                kernel__peripherals_E
                0x02038454                kernel__peripherals__external_interrupt_2
                0x0203843c                kernel__peripherals__clock_freq_hz
                0x02038490                kernel__peripherals__uart_stop_bitsT
                0x0203847c                kernel__peripherals__access_protection_segment_idT
                0x02038474                kernel__peripherals__external_interrupt_0
                0x02038468                kernel__peripherals__uart_b_ready
                0x020384a0                kernel__peripherals__periodic_scaler
                0x02038470                kernel__peripherals__external_interrupt_1
                0x020384a4                kernel__peripherals__periodic_count
                0x02038458                kernel__peripherals__dma_time_out
                0x0203846c                kernel__peripherals__uart_a_ready
                0x02038440                kernel__peripherals__watch_dog_time_out
                0x0203844c                kernel__peripherals__general_purpose_timer
                0x02038484                kernel__peripherals__uart_parityT
                0x02038498                kernel__peripherals__uart_channelT
                0x02038448                kernel__peripherals__real_time_clock
                0x02038444                kernel__peripherals__external_interrupt_4
                0x02038450                kernel__peripherals__external_interrupt_3
                0x0203845c                kernel__peripherals__dma_access_error
                0x02038460                kernel__peripherals__uart_error
                0x02038464                kernel__peripherals__correctable_error_in_memory
 .data          0x020384a8        0x1 /usr/local/openravenscar/lib/gcc-lib/sparc-ork-elf/2.8.1/adalib/libgnarl.a(kernel-serial_output.o)
                0x020384a8                kernel__serial_output_E
 *fill*         0x020384a9        0x3
 .data          0x020384ac      0x428 /usr/local/openravenscar/lib/gcc-lib/sparc-ork-elf/2.8.1/adalib/libgnarl.a(install_handler.o)
                0x020388cc                Coming_Task_Buffer
                0x020388c0                Context_Switch_Necessary
                0x020388c4                Current_Task_Buffer
                0x020388c8                Coming_Task_Id
                0x020388bc                ISR_Nest_Level
                0x020388d0                FP_Save_Pending
 *fill*         0x020388d4        0x4
 .data          0x020388d8       0x15 /usr/local/openravenscar/lib/gcc-lib/sparc-ork-elf/2.8.1/adalib/libgnat.a(a-except.o)
                0x020388e8                ada__exceptions__counter
                0x020388d8                ada__exceptions__null_loc
                0x020388dc                ada__exceptions__null_id
                0x020388e0                ada__exceptions__subprogram_descriptors
 *fill*         0x020388ed        0x3
 .data          0x020388f0       0x79 /usr/local/openravenscar/lib/gcc-lib/sparc-ork-elf/2.8.1/adalib/libgnat.a(a-filico.o)
                0x02038934                ada__finalization__list_controller__list_controllerF
                0x02038938                ada__finalization__list_controller__list_controllerE
                0x020388f8                ada__finalization__list_controller__simple_list_controllerE
                0x020388f0                ada__finalization__list_controller__simple_list_controllerP
                0x020388f4                ada__finalization__list_controller__simple_list_controllerF
                0x02038930                ada__finalization__list_controller__list_controllerP
 *fill*         0x02038969        0x7
 .data          0x02038970       0x54 /usr/local/openravenscar/lib/gcc-lib/sparc-ork-elf/2.8.1/adalib/libgnat.a(a-finali.o)
                0x02038998                ada__finalization__limited_controlledF
                0x02038994                ada__finalization__limited_controlledP
                0x020389a0                ada__finalization__limited_controlledE
                0x02038974                ada__finalization__controlledF
                0x02038970                ada__finalization__controlledP
                0x02038978                ada__finalization__controlledE
 *fill*         0x020389c4        0x4
 .data          0x020389c8      0x1ac /usr/local/openravenscar/lib/gcc-lib/sparc-ork-elf/2.8.1/adalib/libgnat.a(a-ioexce.o)
                0x02038af4                ada__io_exceptions__end_error
                0x02038b08                ada__io_exceptions__data_errorE
                0x02038b28                ada__io_exceptions__data_error
                0x02038aa0                ada__io_exceptions__device_errorE
                0x020389e8                ada__io_exceptions__status_error
                0x02038ac0                ada__io_exceptions__device_error
                0x02038a00                ada__io_exceptions__mode_errorE
                0x02038a70                ada__io_exceptions__use_errorE
                0x02038b40                ada__io_exceptions__layout_errorE
                0x02038a20                ada__io_exceptions__mode_error
                0x02038a38                ada__io_exceptions__name_errorE
                0x02038ad8                ada__io_exceptions__end_errorE
                0x02038a8c                ada__io_exceptions__use_error
                0x02038a58                ada__io_exceptions__name_error
                0x02038b60                ada__io_exceptions__layout_error
                0x020389c8                ada__io_exceptions__status_errorE
 *fill*         0x02038b74        0x4
 .data          0x02038b78       0x30 /usr/local/openravenscar/lib/gcc-lib/sparc-ork-elf/2.8.1/adalib/libgnat.a(a-numeri.o)
                0x02038b78                ada__numerics__argument_errorE
                0x02038b94                ada__numerics__argument_error
 .data          0x02038ba8       0x25 /usr/local/openravenscar/lib/gcc-lib/sparc-ork-elf/2.8.1/adalib/libgnat.a(a-stream.o)
                0x02038bac                ada__streams__root_stream_typeF
                0x02038bb0                ada__streams__root_stream_typeE
                0x02038ba8                ada__streams__root_stream_typeP
 *fill*         0x02038bcd        0x3
 .data          0x02038bd0       0x49 /usr/local/openravenscar/lib/gcc-lib/sparc-ork-elf/2.8.1/adalib/libgnat.a(a-tags.o)
                0x02038bfc                ada__tags__dt_entry_size
                0x02038c14                ada__tags__external_tag_htable__iterator_ptrXn
                0x02038c00                ada__tags__tsd_prologue_size
                0x02038be4                ada__tags__tag_error
                0x02038bf8                ada__tags__dt_prologue_size
                0x02038c08                ada__tags__external_tag_htable__null_ptrXn
                0x02038c18                ada__tags__external_tag_htable__iterator_startedXn
                0x02038c04                ada__tags__tsd_entry_size
                0x02038c0c                ada__tags__wide_booleanT
                0x02038bd0                ada__tags__tag_errorE
 *fill*         0x02038c19        0x7
 .data          0x02038c20       0x27 /usr/local/openravenscar/lib/gcc-lib/sparc-ork-elf/2.8.1/adalib/libgnat.a(g-except.o)
                0x02038c28                gnat__exceptions__exception_typeE
                0x02038c20                gnat__exceptions__exception_typeP
                0x02038c24                gnat__exceptions__exception_typeF
 *fill*         0x02038c47        0x1
 .data          0x02038c48       0x3c /usr/local/openravenscar/lib/gcc-lib/sparc-ork-elf/2.8.1/adalib/libgnat.a(i-c.o)
                0x02038c48                interfaces__c__nul
                0x02038c70                interfaces__c__terminator_error
                0x02038c4a                interfaces__c__wide_nul
                0x02038c50                interfaces__c__terminator_errorE
 .data          0x02038c84        0xc /usr/local/openravenscar/lib/gcc-lib/sparc-ork-elf/2.8.1/adalib/libgnat.a(s-except.o)
                0x02038c84                system__exceptions__others_id
                0x02038c88                system__exceptions__all_others_id
                0x02038c8c                system__exceptions__no_info
 .data          0x02038c90        0x9 /usr/local/openravenscar/lib/gcc-lib/sparc-ork-elf/2.8.1/adalib/libgnat.a(s-exctab.o)
                0x02038c94                system__exception_table__exception_htable__iterator_ptrXn
                0x02038c90                system__exception_table__exception_htable__null_ptrXn
                0x02038c98                system__exception_table__exception_htable__iterator_startedXn
 *fill*         0x02038c99        0x3
 .data          0x02038c9c       0x14 /usr/local/openravenscar/lib/gcc-lib/sparc-ork-elf/2.8.1/adalib/libgnat.a(s-fatflt.o)
                0x02038c9c                system__fat_flt__fat_float__float_radix
                0x02038cac                system__fat_flt__fat_float__invrad
                0x02038ca4                system__fat_flt__fat_float__radix_to_m_minus_1
                0x02038ca8                system__fat_flt__fat_float__rad
                0x02038ca0                system__fat_flt__fat_float__float_radix_inv
 .data          0x02038cb0       0x8d /usr/local/openravenscar/lib/gcc-lib/sparc-ork-elf/2.8.1/adalib/libgnat.a(s-finimp.o)
                0x02038d08                system__finalization_implementation__record_controllerE
                0x02038cb4                system__finalization_implementation__limited_record_controllerP
                0x02038cb8                system__finalization_implementation__limited_record_controllerF
                0x02038d04                system__finalization_implementation__record_controllerF
                0x02038cc0                system__finalization_implementation__limited_record_controllerE
                0x02038cb0                system__finalization_implementation__global_final_list
                0x02038d00                system__finalization_implementation__record_controllerP
 *fill*         0x02038d3d        0x3
 .data          0x02038d40       0x69 /usr/local/openravenscar/lib/gcc-lib/sparc-ork-elf/2.8.1/adalib/libgnat.a(s-finroo.o)
                0x02038d48                system__finalization_root__empty_root_controlledE
                0x02038d40                system__finalization_root__empty_root_controlledP
                0x02038d44                system__finalization_root__empty_root_controlledF
                0x02038d78                system__finalization_root__root_controlledP
                0x02038d80                system__finalization_root__root_controlledE
                0x02038d7c                system__finalization_root__root_controlledF
 *fill*         0x02038da9        0x3
 .data          0x02038dac        0xf /usr/local/openravenscar/lib/gcc-lib/sparc-ork-elf/2.8.1/adalib/libgnat.a(s-parame.o)
                0x02038dac                system__parameters__unspecified_size
                0x02038db9                system__parameters__stack_grows_down
                0x02038db8                system__parameters__sec_stack_dynamic
                0x02038dba                system__parameters__garbage_collected
                0x02038db0                system__parameters__dynamic
                0x02038db4                system__parameters__sec_stack_ratio
 .data          0x02038dbb        0x1 /usr/local/openravenscar/lib/gcc-lib/sparc-ork-elf/2.8.1/adalib/libgnat.a(s-secsta.o)
                0x02038dbb                system__secondary_stack__ss_ratio_dynamic
 .data          0x02038dbc        0xc /usr/local/openravenscar/lib/gcc-lib/sparc-ork-elf/2.8.1/adalib/libgnat.a(s-stache.o)
                0x02038dc0                system__stack_checking__null_stack
                0x02038dbc                system__stack_checking__multi_processor
                0x02038dc4                _gnat_stack_cache
 .data          0x02038dc8       0xcc /usr/local/openravenscar/lib/gcc-lib/sparc-ork-elf/2.8.1/adalib/libgnat.a(s-stalib.o)
                0x02038dc8                system__standard_library__program_error_name
                0x02038e08                system__standard_library__numeric_error_name
                0x02038e40                program_error
                0x02038e90                system__standard_library__local_partition_id
                0x02038e68                tasking_error
                0x02038e7c                _abort_signal
                0x02038df8                system__standard_library__abort_signal_name
                0x02038e2c                numeric_error
                0x02038dd8                system__standard_library__storage_error_name
                0x02038de8                system__standard_library__tasking_error_name
                0x02038e18                constraint_error
                0x02038e54                storage_error
 .data          0x02038e94       0x5c /usr/local/openravenscar/lib/gcc-lib/sparc-ork-elf/2.8.1/adalib/libgnat.a(s-soflin.o)
                0x02038ea0                system__soft_links__update_exception
                0x02038edc                system__soft_links__enter_master
                0x02038e94                system__soft_links__abort_defer
                0x02038ec4                system__soft_links__set_machine_state_addr
                0x02038eb0                system__soft_links__get_jmpbuf_address
                0x02038eb4                system__soft_links__set_jmpbuf_address
                0x02038eec                system__soft_links__task_wrapper_address
                0x02038ea4                system__soft_links__check_abort_status
                0x02038ed0                system__soft_links__get_current_excep
                0x02038ee8                system__soft_links__timed_delay
                0x02038e9c                system__soft_links__abort_handler
                0x02038eb8                system__soft_links__get_sec_stack_addr
                0x02038e98                system__soft_links__abort_undefer
                0x02038ec0                system__soft_links__get_machine_state_addr
                0x02038ed4                system__soft_links__get_stack_info
                0x02038eac                system__soft_links__unlock_task
                0x02038ebc                system__soft_links__set_sec_stack_addr
                0x02038ee4                system__soft_links__clock
                0x02038ed8                system__soft_links__current_master
                0x02038ee0                system__soft_links__complete_master
                0x02038ec8                system__soft_links__get_exc_stack_addr
                0x02038ea8                system__soft_links__lock_task
                0x02038ecc                system__soft_links__set_exc_stack_addr
 .data          0x02038ef0        0xc /usr/local/openravenscar/lib/gcc-lib/sparc-ork-elf/2.8.1/adalib/libgnat.a(a-argv.o)
                0x02038ef0                gnat_argc
                0x02038ef8                gnat_envp
                0x02038ef4                gnat_argv
 .data          0x02038efc        0x4 /usr/local/openravenscar/lib/gcc-lib/sparc-ork-elf/2.8.1/adalib/libgnat.a(a-exit.o)
                0x02038efc                gnat_exit_status
 .data          0x02038f00       0x18 /usr/local/openravenscar/lib/gcc-lib/sparc-ork-elf/2.8.1/adalib/libgnat.a(a-init.o)
                0x02038f08                __gl_wc_encoding
                0x02038f10                __gl_unreserve_all_interrupts
                0x02038f14                __gl_exception_tracebacks
                0x02038f00                __gl_main_priority
                0x02038f0c                __gl_adafinal_ptr
                0x02038f09                __gl_locking_policy
                0x02038f0b                __gl_task_dispatching_policy
                0x02038f0a                __gl_queuing_policy
                0x02038f04                __gl_time_slice_val
 .data          0x02038f18       0x28 /usr/local/openravenscar/lib/gcc-lib/sparc-ork-elf/2.8.1/adalib/libgnat.a(s-fatllf.o)
                0x02038f28                system__fat_llf__fat_long_long_float__radix_to_m_minus_1
                0x02038f18                system__fat_llf__fat_long_long_float__float_radix
                0x02038f20                system__fat_llf__fat_long_long_float__float_radix_inv
                0x02038f38                system__fat_llf__fat_long_long_float__invrad
                0x02038f30                system__fat_llf__fat_long_long_float__rad
 .data          0x02038f40        0x8 /usr/local/openravenscar/lib/gcc-lib/sparc-ork-elf/2.8.1/adalib/libgnat.a(a-adaint.o)
                0x02038f40                Dir_Separator
                0x02038f44                _gnat_library_template
 .data          0x02038f48      0x2f0 /usr/local/openravenscar/sparc-ork-elf/lib/libc.a(impure.o)
                0x02039234                _impure_ptr
 .data          0x02039238      0x444 /usr/local/openravenscar/sparc-ork-elf/lib/libc.a(mallocr.o)
                0x02039644                __malloc_top_pad
                0x0203964c                __malloc_max_sbrked_mem
                0x02039648                __malloc_sbrk_base
                0x02039654                __malloc_current_mallinfo
                0x02039238                __malloc_av_
                0x02039650                __malloc_max_total_mem
                0x02039640                __malloc_trim_threshold
 .data          0x0203967c        0x8 /usr/local/openravenscar/sparc-ork-elf/lib/libc.a(environ.o)
                0x02039680                environ
 *fill*         0x02039684        0x4
 .data          0x02039688       0x18 /usr/local/openravenscar/sparc-ork-elf/lib/libc.a(locale.o)
                0x02039688                __mb_cur_max
 .data          0x020396a0        0x4 /usr/local/openravenscar/sparc-ork-elf/lib/libork.a(sbrk.o)
 .data          0x020396a4        0x8 /usr/local/openravenscar/sparc-ork-elf/lib/libork.a(uart.o)
                0x020396a4                uart_status
                0x020396a8                uart_channel_a
                0x020396ac                data_end=.

.bss            0x020396b0   0x1d7dc4
                0x020396b0                bss_start=.
 *(.bss)
 .bss           0x020396b0     0x1af0 ./devices.o
 *fill*         0x0203b1a0       0x60
 .bss           0x0203b200        0x8 ./tools.o
 *fill*         0x0203b208       0xf8
 .bss           0x0203b300      0x608 ./add.o
 *fill*         0x0203b908        0x8
 .bss           0x0203b910        0x8 /usr/local/openravenscar/lib/gcc-lib/sparc-ork-elf/2.8.1/adalib/libgnarl.a(s-tarest.o)
 .bss           0x0203b918      0x100 /usr/local/openravenscar/lib/gcc-lib/sparc-ork-elf/2.8.1/adalib/libgnarl.a(s-tasdeb.o)
 *fill*         0x0203ba18       0xe8
 .bss           0x0203bb00      0x6a0 /usr/local/openravenscar/lib/gcc-lib/sparc-ork-elf/2.8.1/adalib/libgnarl.a(s-taskin.o)
 *fill*         0x0203c1a0       0x60
 .bss           0x0203c200   0x153b08 /usr/local/openravenscar/lib/gcc-lib/sparc-ork-elf/2.8.1/adalib/libgnarl.a(kernel-memory.o)
 *fill*         0x0218fd08        0x8
 .bss           0x0218fd10      0x1a4 /usr/local/openravenscar/lib/gcc-lib/sparc-ork-elf/2.8.1/adalib/libgnat.a(a-except.o)
 *fill*         0x0218feb4       0x4c
 .bss           0x0218ff00     0x2914 /usr/local/openravenscar/lib/gcc-lib/sparc-ork-elf/2.8.1/adalib/libgnat.a(s-secsta.o)
 *fill*         0x02192814        0xc
 .bss           0x02192820        0x4 /usr/local/openravenscar/lib/gcc-lib/sparc-ork-elf/2.8.1/libgcc.a(frame.o)
 *(COMMON)
 COMMON         0x02192824       0x38 ./objetos_protegidos.o
                0x02192824                objetos_protegidos__elegir_modo
                0x02192834                objetos_protegidos__medidas
                0x02192848                objetos_protegidos__sintomas
 *fill*         0x0219285c        0x4
 COMMON         0x02192860       0x68 ./pulse_interrupt.o
                0x02192860                pulse_interrupt__interr_9
                0x02192868                pulse_interrupt___chain
                0x02192870                pulse_interrupt__interr_10
                0x02192878                pulse_interrupt__interr_6
                0x02192880                pulse_interrupt__interr_1
                0x02192888                pulse_interrupt__interr_8
                0x02192890                pulse_interrupt__interr_4
                0x02192898                pulse_interrupt__interr_3
                0x021928a0                pulse_interrupt__interruptI
                0x021928a8                pulse_interrupt__interr_7
                0x021928b0                pulse_interrupt__interr_2
                0x021928b8                pulse_interrupt__interrupt
                0x021928c0                pulse_interrupt__interr_5
 COMMON         0x021928c8       0x58 ./devices.o
                0x021928c8                devices__wcet_speed
                0x021928d0                devices__wcet_eeg
                0x021928d8                devices__wcet_distance
                0x021928e0                devices__wcet_automatic_driving
                0x021928e8                devices__wcet_alarm
                0x021928f0                devices__wcet_steering
                0x021928f8                devices__wcet_display
                0x02192900                devices__wcet_light
                0x02192908                devices__wcet_headposition
                0x02192910                devices__wcet_eyes_image
                0x02192918                devices__wcet_brake
 COMMON         0x02192920       0x48 ./modo_interrupcion.o
                0x02192920                modo_interrupcion__interrupt_handler
 COMMON         0x02192968        0x8 ./tools.o
                0x02192968                tools__big_bang
 COMMON         0x02192970      0x10f /usr/local/openravenscar/lib/gcc-lib/sparc-ork-elf/2.8.1/adalib/libgnarl.a(s-interr.o)
                0x02192970                system__interrupts__static_interrupt_protectionB
                0x02192990                system__interrupts__user_handler
                0x02192a44                system__interrupts__static_interrupt_protectionT
                0x02192a70                system__interrupts__reserve
 *fill*         0x02192a7f        0x1
 COMMON         0x02192a80    0x6a6a8 /usr/local/openravenscar/lib/gcc-lib/sparc-ork-elf/2.8.1/adalib/libgnarl.a(s-taprop.o)
                0x02192a80                system__task_primitives__operations__all_tasks_l
                0x02192a88                system__task_primitives__operations__atcb_array
 COMMON         0x021fd128      0xfa0 /usr/local/openravenscar/lib/gcc-lib/sparc-ork-elf/2.8.1/adalib/libgnarl.a(s-tasdeb.o)
                0x021fd128                system__tasking__debug__known_tasks
 COMMON         0x021fe0c8       0x60 /usr/local/openravenscar/lib/gcc-lib/sparc-ork-elf/2.8.1/adalib/libgnarl.a(s-tposen.o)
                0x021fe0c8                system__tasking__protected_objects__single_entry__protection_entryB
                0x021fe0e4                system__tasking__protected_objects__single_entry__protection_entry_accessM
                0x021fe0e8                system__tasking__protected_objects__single_entry__protection_entry_accessL
                0x021fe110                system__tasking__protected_objects__single_entry___master
                0x021fe114                system__tasking__protected_objects__single_entry__protection_entryT
 COMMON         0x021fe128       0xb4 /usr/local/openravenscar/lib/gcc-lib/sparc-ork-elf/2.8.1/adalib/libgnarl.a(kernel-interrupts.o)
                0x021fe128                kernel__interrupts__handlers_table
 COMMON         0x021fe1dc       0x28 /usr/local/openravenscar/lib/gcc-lib/sparc-ork-elf/2.8.1/adalib/libgnarl.a(kernel-threads.o)
                0x021fe1dc                kernel__threads__thread_idL
 *fill*         0x021fe204        0x4
 COMMON         0x021fe208    0x10a10 /usr/local/openravenscar/lib/gcc-lib/sparc-ork-elf/2.8.1/adalib/libgnarl.a(kernel-threads-queues.o)
                0x021fe208                kernel__threads__queues__thread_list
 COMMON         0x0220ec18       0x10 /usr/local/openravenscar/lib/gcc-lib/sparc-ork-elf/2.8.1/adalib/libgnarl.a(kernel-peripherals-registers.o)
                0x0220ec18                kernel__peripherals__registers__protected_segment_2_base_register
                0x0220ec1c                kernel__peripherals__registers__protected_segment_2_end_register
                0x0220ec20                kernel__peripherals__registers__protected_segment_1_base_register
                0x0220ec24                kernel__peripherals__registers__protected_segment_1_end_register
 COMMON         0x0220ec28        0x4 /usr/local/openravenscar/lib/gcc-lib/sparc-ork-elf/2.8.1/adalib/libgnarl.a(kernel-peripherals.o)
                0x0220ec28                kernel__peripherals__timer_control_mirror
 COMMON         0x0220ec2c      0x1a8 /usr/local/openravenscar/lib/gcc-lib/sparc-ork-elf/2.8.1/adalib/libgnat.a(a-except.o)
                0x0220ec2c                ada__exceptions__num_subprogram_descriptors
                0x0220ec30                ada__exceptions__null_occurrence
 COMMON         0x0220edd4       0xb0 /usr/local/openravenscar/lib/gcc-lib/sparc-ork-elf/2.8.1/adalib/libgnat.a(a-filico.o)
                0x0220edd4                ada__finalization__list_controller__list_controllerT
                0x0220ee04                ada__finalization__list_controller__simple_list_controllerT
                0x0220ee34                ada__finalization__list_controller__list_controllerB
                0x0220ee5c                ada__finalization__list_controller__simple_list_controllerB
 COMMON         0x0220ee84       0xac /usr/local/openravenscar/lib/gcc-lib/sparc-ork-elf/2.8.1/adalib/libgnat.a(a-finali.o)
                0x0220ee84                ada__finalization__controlledB
                0x0220eea8                ada__finalization__limited_controlledT
                0x0220eed8                ada__finalization__controlledT
                0x0220ef0c                ada__finalization__limited_controlledB
 COMMON         0x0220ef30       0x30 /usr/local/openravenscar/lib/gcc-lib/sparc-ork-elf/2.8.1/adalib/libgnat.a(a-stream.o)
                0x0220ef30                ada__streams__root_stream_typeB
                0x0220ef4c                ada__streams__root_stream_typeT
 COMMON         0x0220ef60      0x101 /usr/local/openravenscar/lib/gcc-lib/sparc-ork-elf/2.8.1/adalib/libgnat.a(a-tags.o)
                0x0220ef60                ada__tags__external_tag_htable__tableXn
                0x0220f060                ada__tags__external_tag_htable__iterator_indexXn
 *fill*         0x0220f061        0x3
 COMMON         0x0220f064       0x48 /usr/local/openravenscar/lib/gcc-lib/sparc-ork-elf/2.8.1/adalib/libgnat.a(g-except.o)
                0x0220f064                gnat__exceptions__exception_typeB
                0x0220f080                gnat__exceptions__exception_typeT
 COMMON         0x0220f0ac       0x28 /usr/local/openravenscar/lib/gcc-lib/sparc-ork-elf/2.8.1/adalib/libgnat.a(s-except.o)
                0x0220f0ac                system__exceptions__all_others_dummy_exception
                0x0220f0c0                system__exceptions__others_dummy_exception
 COMMON         0x0220f0d4       0x98 /usr/local/openravenscar/lib/gcc-lib/sparc-ork-elf/2.8.1/adalib/libgnat.a(s-exctab.o)
                0x0220f0d4                system__exception_table__exception_htable__iterator_indexXn
                0x0220f0d8                system__exception_table__exception_htable__tableXn
 COMMON         0x0220f16c       0xa4 /usr/local/openravenscar/lib/gcc-lib/sparc-ork-elf/2.8.1/adalib/libgnat.a(s-finimp.o)
                0x0220f16c                system__finalization_implementation__record_controllerT
                0x0220f198                system__finalization_implementation__record_controllerB
                0x0220f1c0                system__finalization_implementation__limited_record_controllerT
                0x0220f1ec                system__finalization_implementation__limited_record_controllerB
 COMMON         0x0220f210       0x88 /usr/local/openravenscar/lib/gcc-lib/sparc-ork-elf/2.8.1/adalib/libgnat.a(s-finroo.o)
                0x0220f210                system__finalization_root__root_controlledT
                0x0220f23c                system__finalization_root__root_controlledB
                0x0220f25c                system__finalization_root__empty_root_controlledB
                0x0220f278                system__finalization_root__empty_root_controlledT
 COMMON         0x0220f298        0x4 /usr/local/openravenscar/lib/gcc-lib/sparc-ork-elf/2.8.1/adalib/libgnat.a(s-secsta.o)
                0x0220f298                system__secondary_stack__ss_pool
 COMMON         0x0220f29c        0xc /usr/local/openravenscar/lib/gcc-lib/sparc-ork-elf/2.8.1/adalib/libgnat.a(s-stache.o)
                0x0220f29c                system__stack_checking__null_stack_info
 COMMON         0x0220f2a8     0x21c8 /usr/local/openravenscar/lib/gcc-lib/sparc-ork-elf/2.8.1/adalib/libgnat.a(s-soflin.o)
                0x0220f2a8                system__soft_links__nt_exc_stack
                0x022112b0                system__soft_links__nt_tsd
 COMMON         0x02211470        0x4 /usr/local/openravenscar/sparc-ork-elf/lib/libc.a(sbrkr.o)
                0x02211470                errno
                0x02211474                bss_end=.

.stab           0x02211474    0x47454
 [.stab](*)
 .stab          0x02211474       0xf0 ./main.o
 .stab          0x02211564      0x5b8 ./force_external_interrupt_2.o
                                0x5c4 (size before relaxing)
 .stab          0x02211b1c     0x25f8 ./objetos_protegidos.o
                               0x2604 (size before relaxing)
 .stab          0x02214114      0xe1c ./pulse_interrupt.o
                                0xe28 (size before relaxing)
 .stab          0x02214f30     0x3c48 ./devices.o
                               0x3c54 (size before relaxing)
 .stab          0x02218b78     0x126c ./actuadores.o
                               0x1278 (size before relaxing)
 .stab          0x02219de4     0x1470 ./modo_interrupcion.o
                               0x147c (size before relaxing)
 .stab          0x0221b254     0x1638 ./sensores.o
                               0x1644 (size before relaxing)
 .stab          0x0221c88c      0x7b0 ./workload.o
                                0x7bc (size before relaxing)
 .stab          0x0221d03c      0xbf4 ./tools.o
                                0xc00 (size before relaxing)
 .stab          0x0221dc30      0xa98 ./add.o
                                0xaa4 (size before relaxing)
 .stab          0x0221e6c8     0x10e0 /usr/local/openravenscar/lib/gcc-lib/sparc-ork-elf/2.8.1/adalib/libgnarl.a(a-reatim.o)
                               0x10ec (size before relaxing)
 .stab          0x0221f7a8      0xb40 /usr/local/openravenscar/lib/gcc-lib/sparc-ork-elf/2.8.1/adalib/libgnarl.a(a-retide.o)
                                0xb4c (size before relaxing)
 .stab          0x022202e8     0x231c /usr/local/openravenscar/lib/gcc-lib/sparc-ork-elf/2.8.1/adalib/libgnarl.a(s-interr.o)
                               0x2328 (size before relaxing)
 .stab          0x02222604      0x600 /usr/local/openravenscar/lib/gcc-lib/sparc-ork-elf/2.8.1/adalib/libgnarl.a(s-osinte.o)
                                0x60c (size before relaxing)
 .stab          0x02222c04      0xdbc /usr/local/openravenscar/lib/gcc-lib/sparc-ork-elf/2.8.1/adalib/libgnarl.a(s-taprob.o)
                                0xdc8 (size before relaxing)
 .stab          0x022239c0     0x2a00 /usr/local/openravenscar/lib/gcc-lib/sparc-ork-elf/2.8.1/adalib/libgnarl.a(s-taprop.o)
                               0x2a0c (size before relaxing)
 .stab          0x022263c0     0x1b60 /usr/local/openravenscar/lib/gcc-lib/sparc-ork-elf/2.8.1/adalib/libgnarl.a(s-tarest.o)
                               0x1b6c (size before relaxing)
 .stab          0x02227f20     0x264c /usr/local/openravenscar/lib/gcc-lib/sparc-ork-elf/2.8.1/adalib/libgnarl.a(s-tasdeb.o)
                               0x2658 (size before relaxing)
 .stab          0x0222a56c     0x21d8 /usr/local/openravenscar/lib/gcc-lib/sparc-ork-elf/2.8.1/adalib/libgnarl.a(s-taskin.o)
                               0x21e4 (size before relaxing)
 .stab          0x0222c744      0x4f8 /usr/local/openravenscar/lib/gcc-lib/sparc-ork-elf/2.8.1/adalib/libgnarl.a(s-taspri.o)
                                0x504 (size before relaxing)
 .stab          0x0222cc3c     0x1d40 /usr/local/openravenscar/lib/gcc-lib/sparc-ork-elf/2.8.1/adalib/libgnarl.a(s-tposen.o)
                               0x1d4c (size before relaxing)
 .stab          0x0222e97c      0x84c /usr/local/openravenscar/lib/gcc-lib/sparc-ork-elf/2.8.1/adalib/libgnarl.a(kernel-interrupts.o)
                                0x858 (size before relaxing)
 .stab          0x0222f1c8      0xff0 /usr/local/openravenscar/lib/gcc-lib/sparc-ork-elf/2.8.1/adalib/libgnarl.a(kernel-threads.o)
                                0xffc (size before relaxing)
 .stab          0x022301b8      0x4b0 /usr/local/openravenscar/lib/gcc-lib/sparc-ork-elf/2.8.1/adalib/libgnarl.a(kernel-threads-atcb.o)
                                0x4bc (size before relaxing)
 .stab          0x02230668      0xdc8 /usr/local/openravenscar/lib/gcc-lib/sparc-ork-elf/2.8.1/adalib/libgnarl.a(kernel-threads-queues.o)
                                0xdd4 (size before relaxing)
 .stab          0x02231430      0x5dc /usr/local/openravenscar/lib/gcc-lib/sparc-ork-elf/2.8.1/adalib/libgnarl.a(kernel-threads-protection.o)
                                0x5e8 (size before relaxing)
 .stab          0x02231a0c      0x8b8 /usr/local/openravenscar/lib/gcc-lib/sparc-ork-elf/2.8.1/adalib/libgnarl.a(kernel-time.o)
                                0x8c4 (size before relaxing)
 .stab          0x022322c4      0x2dc /usr/local/openravenscar/lib/gcc-lib/sparc-ork-elf/2.8.1/adalib/libgnarl.a(kernel-memory.o)
                                0x2e8 (size before relaxing)
 .stab          0x022325a0      0x480 /usr/local/openravenscar/lib/gcc-lib/sparc-ork-elf/2.8.1/adalib/libgnarl.a(kernel-cpu_primitives.o)
                                0x48c (size before relaxing)
 .stab          0x02232a20      0xcd8 /usr/local/openravenscar/lib/gcc-lib/sparc-ork-elf/2.8.1/adalib/libgnarl.a(kernel-peripherals-registers.o)
                                0xce4 (size before relaxing)
 .stab          0x022336f8     0x1590 /usr/local/openravenscar/lib/gcc-lib/sparc-ork-elf/2.8.1/adalib/libgnarl.a(kernel-peripherals.o)
                               0x159c (size before relaxing)
 .stab          0x02234c88      0x3b4 /usr/local/openravenscar/lib/gcc-lib/sparc-ork-elf/2.8.1/adalib/libgnarl.a(kernel-serial_output.o)
                                0x3c0 (size before relaxing)
 .stab          0x0223503c     0x32b8 /usr/local/openravenscar/lib/gcc-lib/sparc-ork-elf/2.8.1/adalib/libgnat.a(a-except.o)
                               0x32c4 (size before relaxing)
 .stab          0x022382f4      0x804 /usr/local/openravenscar/lib/gcc-lib/sparc-ork-elf/2.8.1/adalib/libgnat.a(a-filico.o)
                                0x810 (size before relaxing)
 .stab          0x02238af8      0xba0 /usr/local/openravenscar/lib/gcc-lib/sparc-ork-elf/2.8.1/adalib/libgnat.a(a-finali.o)
                                0xbac (size before relaxing)
 .stab          0x02239698      0x2e8 /usr/local/openravenscar/lib/gcc-lib/sparc-ork-elf/2.8.1/adalib/libgnat.a(a-ioexce.o)
                                0x2f4 (size before relaxing)
 .stab          0x02239980     0x1e30 /usr/local/openravenscar/lib/gcc-lib/sparc-ork-elf/2.8.1/adalib/libgnat.a(a-nuelfu.o)
                               0x1e3c (size before relaxing)
 .stab          0x0223b7b0      0x1ec /usr/local/openravenscar/lib/gcc-lib/sparc-ork-elf/2.8.1/adalib/libgnat.a(a-numeri.o)
                                0x1f8 (size before relaxing)
 .stab          0x0223b99c      0x834 /usr/local/openravenscar/lib/gcc-lib/sparc-ork-elf/2.8.1/adalib/libgnat.a(a-stream.o)
                                0x840 (size before relaxing)
 .stab          0x0223c1d0     0x198c /usr/local/openravenscar/lib/gcc-lib/sparc-ork-elf/2.8.1/adalib/libgnat.a(a-tags.o)
                               0x1998 (size before relaxing)
 .stab          0x0223db5c      0xc54 /usr/local/openravenscar/lib/gcc-lib/sparc-ork-elf/2.8.1/adalib/libgnat.a(g-except.o)
                                0xc60 (size before relaxing)
 .stab          0x0223e7b0      0x354 /usr/local/openravenscar/lib/gcc-lib/sparc-ork-elf/2.8.1/adalib/libgnat.a(g-hesora.o)
                                0x360 (size before relaxing)
 .stab          0x0223eb04     0x1908 /usr/local/openravenscar/lib/gcc-lib/sparc-ork-elf/2.8.1/adalib/libgnat.a(i-c.o)
                               0x1914 (size before relaxing)
 .stab          0x0224040c     0x1548 /usr/local/openravenscar/lib/gcc-lib/sparc-ork-elf/2.8.1/adalib/libgnat.a(s-arit64.o)
                               0x1554 (size before relaxing)
 .stab          0x02241954      0x840 /usr/local/openravenscar/lib/gcc-lib/sparc-ork-elf/2.8.1/adalib/libgnat.a(s-except.o)
                                0x84c (size before relaxing)
 .stab          0x02242194      0xba0 /usr/local/openravenscar/lib/gcc-lib/sparc-ork-elf/2.8.1/adalib/libgnat.a(s-exctab.o)
                                0xbac (size before relaxing)
 .stab          0x02242d34      0x414 /usr/local/openravenscar/lib/gcc-lib/sparc-ork-elf/2.8.1/adalib/libgnat.a(s-exnflt.o)
                                0x420 (size before relaxing)
 .stab          0x02243148     0x1644 /usr/local/openravenscar/lib/gcc-lib/sparc-ork-elf/2.8.1/adalib/libgnat.a(s-fatflt.o)
                               0x1650 (size before relaxing)
 .stab          0x0224478c     0x25a4 /usr/local/openravenscar/lib/gcc-lib/sparc-ork-elf/2.8.1/adalib/libgnat.a(s-finimp.o)
                               0x25b0 (size before relaxing)
 .stab          0x02246d30      0xb7c /usr/local/openravenscar/lib/gcc-lib/sparc-ork-elf/2.8.1/adalib/libgnat.a(s-finroo.o)
                                0xb88 (size before relaxing)
 .stab          0x022478ac      0x45c /usr/local/openravenscar/lib/gcc-lib/sparc-ork-elf/2.8.1/adalib/libgnat.a(s-imgint.o)
                                0x468 (size before relaxing)
 .stab          0x02247d08     0x12cc /usr/local/openravenscar/lib/gcc-lib/sparc-ork-elf/2.8.1/adalib/libgnat.a(s-imgrea.o)
                               0x12d8 (size before relaxing)
 .stab          0x02248fd4      0x408 /usr/local/openravenscar/lib/gcc-lib/sparc-ork-elf/2.8.1/adalib/libgnat.a(s-imguns.o)
                                0x414 (size before relaxing)
 .stab          0x022493dc      0x30c /usr/local/openravenscar/lib/gcc-lib/sparc-ork-elf/2.8.1/adalib/libgnat.a(s-mastop.o)
                                0x318 (size before relaxing)
 .stab          0x022496e8      0x1ec /usr/local/openravenscar/lib/gcc-lib/sparc-ork-elf/2.8.1/adalib/libgnat.a(s-parame.o)
                                0x1f8 (size before relaxing)
 .stab          0x022498d4      0x15c /usr/local/openravenscar/lib/gcc-lib/sparc-ork-elf/2.8.1/adalib/libgnat.a(s-powtab.o)
                                0x168 (size before relaxing)
 .stab          0x02249a30      0xaf8 /usr/local/openravenscar/lib/gcc-lib/sparc-ork-elf/2.8.1/adalib/libgnat.a(s-secsta.o)
                                0xb04 (size before relaxing)
 .stab          0x0224a528      0x36c /usr/local/openravenscar/lib/gcc-lib/sparc-ork-elf/2.8.1/adalib/libgnat.a(s-sopco3.o)
                                0x378 (size before relaxing)
 .stab          0x0224a894      0x810 /usr/local/openravenscar/lib/gcc-lib/sparc-ork-elf/2.8.1/adalib/libgnat.a(s-stache.o)
                                0x81c (size before relaxing)
 .stab          0x0224b0a4      0xc60 /usr/local/openravenscar/lib/gcc-lib/sparc-ork-elf/2.8.1/adalib/libgnat.a(s-stalib.o)
                                0xc6c (size before relaxing)
 .stab          0x0224bd04      0x384 /usr/local/openravenscar/lib/gcc-lib/sparc-ork-elf/2.8.1/adalib/libgnat.a(s-stoele.o)
                                0x390 (size before relaxing)
 .stab          0x0224c088     0x3384 /usr/local/openravenscar/lib/gcc-lib/sparc-ork-elf/2.8.1/adalib/libgnat.a(s-stratt.o)
                               0x3390 (size before relaxing)
 .stab          0x0224f40c      0x9fc /usr/local/openravenscar/lib/gcc-lib/sparc-ork-elf/2.8.1/adalib/libgnat.a(s-strops.o)
                                0xa08 (size before relaxing)
 .stab          0x0224fe08      0xe34 /usr/local/openravenscar/lib/gcc-lib/sparc-ork-elf/2.8.1/adalib/libgnat.a(s-soflin.o)
                                0xe40 (size before relaxing)
 .stab          0x02250c3c      0x27c /usr/local/openravenscar/lib/gcc-lib/sparc-ork-elf/2.8.1/adalib/libgnat.a(s-traceb.o)
                                0x288 (size before relaxing)
 .stab          0x02250eb8      0x390 /usr/local/openravenscar/lib/gcc-lib/sparc-ork-elf/2.8.1/adalib/libgnat.a(a-argv.o)
                                0x39c (size before relaxing)
 .stab          0x02251248      0x3f0 /usr/local/openravenscar/lib/gcc-lib/sparc-ork-elf/2.8.1/adalib/libgnat.a(a-cio.o)
                                0x444 (size before relaxing)
 .stab          0x02251638      0x15c /usr/local/openravenscar/lib/gcc-lib/sparc-ork-elf/2.8.1/adalib/libgnat.a(a-exit.o)
                                0x168 (size before relaxing)
 .stab          0x02251794      0xa20 /usr/local/openravenscar/lib/gcc-lib/sparc-ork-elf/2.8.1/adalib/libgnat.a(a-raise.o)
                                0xaf8 (size before relaxing)
 .stab          0x022521b4      0xb1c /usr/local/openravenscar/lib/gcc-lib/sparc-ork-elf/2.8.1/adalib/libgnat.a(a-init.o)
                               0x1080 (size before relaxing)
 .stab          0x02252cd0      0x144 /usr/local/openravenscar/lib/gcc-lib/sparc-ork-elf/2.8.1/adalib/libgnat.a(a-final.o)
                                0x150 (size before relaxing)
 .stab          0x02252e14     0x1698 /usr/local/openravenscar/lib/gcc-lib/sparc-ork-elf/2.8.1/adalib/libgnat.a(s-fatllf.o)
                               0x16a4 (size before relaxing)
 .stab          0x022544ac      0x408 /usr/local/openravenscar/lib/gcc-lib/sparc-ork-elf/2.8.1/adalib/libgnat.a(s-imgllu.o)
                                0x414 (size before relaxing)
 .stab          0x022548b4     0x1af4 /usr/local/openravenscar/lib/gcc-lib/sparc-ork-elf/2.8.1/adalib/libgnat.a(a-adaint.o)
                               0x1cd4 (size before relaxing)
 .stab          0x022563a8      0x348 /usr/local/openravenscar/lib/gcc-lib/sparc-ork-elf/2.8.1/libgcc.a(__dummy.o)
                                0x354 (size before relaxing)
 .stab          0x022566f0      0x24c /usr/local/openravenscar/lib/gcc-lib/sparc-ork-elf/2.8.1/libgcc.a(_ashldi3.o)
                                0x36c (size before relaxing)
 .stab          0x0225693c      0x24c /usr/local/openravenscar/lib/gcc-lib/sparc-ork-elf/2.8.1/libgcc.a(_cmpdi2.o)
                                0x36c (size before relaxing)
 .stab          0x02256b88      0x270 /usr/local/openravenscar/lib/gcc-lib/sparc-ork-elf/2.8.1/libgcc.a(_divdi3.o)
                                0x390 (size before relaxing)
 .stab          0x02256df8      0x240 /usr/local/openravenscar/lib/gcc-lib/sparc-ork-elf/2.8.1/libgcc.a(_fixsfdi.o)
                                0x360 (size before relaxing)
 .stab          0x02257038      0x240 /usr/local/openravenscar/lib/gcc-lib/sparc-ork-elf/2.8.1/libgcc.a(_fixunsdfdi.o)
                                0x360 (size before relaxing)
 .stab          0x02257278      0x240 /usr/local/openravenscar/lib/gcc-lib/sparc-ork-elf/2.8.1/libgcc.a(_fixunssfdi.o)
                                0x360 (size before relaxing)
 .stab          0x022574b8      0x240 /usr/local/openravenscar/lib/gcc-lib/sparc-ork-elf/2.8.1/libgcc.a(_floatdidf.o)
                                0x360 (size before relaxing)
 .stab          0x022576f8      0x240 /usr/local/openravenscar/lib/gcc-lib/sparc-ork-elf/2.8.1/libgcc.a(_floatdisf.o)
                                0x360 (size before relaxing)
 .stab          0x02257938      0x24c /usr/local/openravenscar/lib/gcc-lib/sparc-ork-elf/2.8.1/libgcc.a(_lshrdi3.o)
                                0x36c (size before relaxing)
 .stab          0x02257b84      0x258 /usr/local/openravenscar/lib/gcc-lib/sparc-ork-elf/2.8.1/libgcc.a(_muldi3.o)
                                0x384 (size before relaxing)
 .stab          0x02257ddc      0x264 /usr/local/openravenscar/lib/gcc-lib/sparc-ork-elf/2.8.1/libgcc.a(_udivdi3.o)
                                0x390 (size before relaxing)
 .stab          0x02258040      0x264 /usr/local/openravenscar/lib/gcc-lib/sparc-ork-elf/2.8.1/libgcc.a(_umoddi3.o)
                                0x390 (size before relaxing)
 .stab          0x022582a4      0x624 /usr/local/openravenscar/lib/gcc-lib/sparc-ork-elf/2.8.1/libgcc.a(frame.o)
                                0x714 (size before relaxing)

.stabstr        0x022588c8    0x991fb
 [.stabstr](*)
 .stabstr       0x022588c8    0x991fb ./main.o
                                  0x0 (size before relaxing)
                0x02211474                heap_start=bss_end
                0x02400000                heap_end=RAM_END
LOAD /usr/local/openravenscar/sparc-ork-elf/lib/ada_crt0.o
LOAD b~main.o
LOAD ./main.o
LOAD ./force_external_interrupt_2.o
LOAD ./objetos_protegidos.o
LOAD ./pulse_interrupt.o
LOAD ./devices.o
LOAD ./actuadores.o
LOAD ./modo_interrupcion.o
LOAD ./sensores.o
LOAD ./workload.o
LOAD ./tools.o
LOAD ./add.o
LOAD /usr/local/openravenscar/lib/gcc-lib/sparc-ork-elf/2.8.1/adalib/libgnarl.a
LOAD /usr/local/openravenscar/lib/gcc-lib/sparc-ork-elf/2.8.1/adalib/libgnat.a
LOAD /usr/local/openravenscar/sparc-ork-elf/lib/libm.a
LOAD /usr/local/openravenscar/lib/gcc-lib/sparc-ork-elf/2.8.1/libgcc.a
START GROUP
LOAD /usr/local/openravenscar/sparc-ork-elf/lib/libc.a
LOAD /usr/local/openravenscar/lib/gcc-lib/sparc-ork-elf/2.8.1/libgcc.a
LOAD /usr/local/openravenscar/sparc-ork-elf/lib/libork.a
LOAD /usr/local/openravenscar/lib/gcc-lib/sparc-ork-elf/2.8.1/adalib//libgnarl.a
END GROUP
LOAD /usr/local/openravenscar/lib/gcc-lib/sparc-ork-elf/2.8.1/libgcc.a
OUTPUT(main elf32-sparc)

.comment        0x00000000      0xed6
 .comment       0x00000000       0x12 b~main.o
 .comment       0x00000012       0x12 ./main.o
 .comment       0x00000024       0x12 ./force_external_interrupt_2.o
 .comment       0x00000036       0x12 ./objetos_protegidos.o
 .comment       0x00000048       0x12 ./pulse_interrupt.o
 .comment       0x0000005a       0x12 ./devices.o
 .comment       0x0000006c       0x12 ./actuadores.o
 .comment       0x0000007e       0x12 ./modo_interrupcion.o
 .comment       0x00000090       0x12 ./sensores.o
 .comment       0x000000a2       0x12 ./workload.o
 .comment       0x000000b4       0x12 ./tools.o
 .comment       0x000000c6       0x12 ./add.o
 .comment       0x000000d8       0x12 /usr/local/openravenscar/lib/gcc-lib/sparc-ork-elf/2.8.1/adalib/libgnarl.a(a-reatim.o)
 .comment       0x000000ea       0x12 /usr/local/openravenscar/lib/gcc-lib/sparc-ork-elf/2.8.1/adalib/libgnarl.a(a-retide.o)
 .comment       0x000000fc       0x12 /usr/local/openravenscar/lib/gcc-lib/sparc-ork-elf/2.8.1/adalib/libgnarl.a(s-interr.o)
 .comment       0x0000010e       0x12 /usr/local/openravenscar/lib/gcc-lib/sparc-ork-elf/2.8.1/adalib/libgnarl.a(s-osinte.o)
 .comment       0x00000120       0x12 /usr/local/openravenscar/lib/gcc-lib/sparc-ork-elf/2.8.1/adalib/libgnarl.a(s-taprob.o)
 .comment       0x00000132       0x12 /usr/local/openravenscar/lib/gcc-lib/sparc-ork-elf/2.8.1/adalib/libgnarl.a(s-taprop.o)
 .comment       0x00000144       0x12 /usr/local/openravenscar/lib/gcc-lib/sparc-ork-elf/2.8.1/adalib/libgnarl.a(s-tarest.o)
 .comment       0x00000156       0x12 /usr/local/openravenscar/lib/gcc-lib/sparc-ork-elf/2.8.1/adalib/libgnarl.a(s-tasdeb.o)
 .comment       0x00000168       0x12 /usr/local/openravenscar/lib/gcc-lib/sparc-ork-elf/2.8.1/adalib/libgnarl.a(s-taskin.o)
 .comment       0x0000017a       0x12 /usr/local/openravenscar/lib/gcc-lib/sparc-ork-elf/2.8.1/adalib/libgnarl.a(s-taspri.o)
 .comment       0x0000018c       0x12 /usr/local/openravenscar/lib/gcc-lib/sparc-ork-elf/2.8.1/adalib/libgnarl.a(s-tposen.o)
 .comment       0x0000019e       0x12 /usr/local/openravenscar/lib/gcc-lib/sparc-ork-elf/2.8.1/adalib/libgnarl.a(kernel-interrupts.o)
 .comment       0x000001b0       0x12 /usr/local/openravenscar/lib/gcc-lib/sparc-ork-elf/2.8.1/adalib/libgnarl.a(kernel-threads.o)
 .comment       0x000001c2       0x12 /usr/local/openravenscar/lib/gcc-lib/sparc-ork-elf/2.8.1/adalib/libgnarl.a(kernel-threads-atcb.o)
 .comment       0x000001d4       0x12 /usr/local/openravenscar/lib/gcc-lib/sparc-ork-elf/2.8.1/adalib/libgnarl.a(kernel-threads-queues.o)
 .comment       0x000001e6       0x12 /usr/local/openravenscar/lib/gcc-lib/sparc-ork-elf/2.8.1/adalib/libgnarl.a(kernel-threads-protection.o)
 .comment       0x000001f8       0x12 /usr/local/openravenscar/lib/gcc-lib/sparc-ork-elf/2.8.1/adalib/libgnarl.a(kernel-time.o)
 .comment       0x0000020a       0x12 /usr/local/openravenscar/lib/gcc-lib/sparc-ork-elf/2.8.1/adalib/libgnarl.a(kernel-memory.o)
 .comment       0x0000021c       0x12 /usr/local/openravenscar/lib/gcc-lib/sparc-ork-elf/2.8.1/adalib/libgnarl.a(kernel-cpu_primitives.o)
 .comment       0x0000022e       0x12 /usr/local/openravenscar/lib/gcc-lib/sparc-ork-elf/2.8.1/adalib/libgnarl.a(kernel-peripherals-registers.o)
 .comment       0x00000240       0x12 /usr/local/openravenscar/lib/gcc-lib/sparc-ork-elf/2.8.1/adalib/libgnarl.a(kernel-peripherals.o)
 .comment       0x00000252       0x12 /usr/local/openravenscar/lib/gcc-lib/sparc-ork-elf/2.8.1/adalib/libgnarl.a(kernel-serial_output.o)
 .comment       0x00000264       0x12 /usr/local/openravenscar/lib/gcc-lib/sparc-ork-elf/2.8.1/adalib/libgnat.a(a-except.o)
 .comment       0x00000276       0x12 /usr/local/openravenscar/lib/gcc-lib/sparc-ork-elf/2.8.1/adalib/libgnat.a(a-filico.o)
 .comment       0x00000288       0x12 /usr/local/openravenscar/lib/gcc-lib/sparc-ork-elf/2.8.1/adalib/libgnat.a(a-finali.o)
 .comment       0x0000029a       0x12 /usr/local/openravenscar/lib/gcc-lib/sparc-ork-elf/2.8.1/adalib/libgnat.a(a-ioexce.o)
 .comment       0x000002ac       0x12 /usr/local/openravenscar/lib/gcc-lib/sparc-ork-elf/2.8.1/adalib/libgnat.a(a-nuelfu.o)
 .comment       0x000002be       0x12 /usr/local/openravenscar/lib/gcc-lib/sparc-ork-elf/2.8.1/adalib/libgnat.a(a-numeri.o)
 .comment       0x000002d0       0x12 /usr/local/openravenscar/lib/gcc-lib/sparc-ork-elf/2.8.1/adalib/libgnat.a(a-stream.o)
 .comment       0x000002e2       0x12 /usr/local/openravenscar/lib/gcc-lib/sparc-ork-elf/2.8.1/adalib/libgnat.a(a-tags.o)
 .comment       0x000002f4       0x12 /usr/local/openravenscar/lib/gcc-lib/sparc-ork-elf/2.8.1/adalib/libgnat.a(g-except.o)
 .comment       0x00000306       0x12 /usr/local/openravenscar/lib/gcc-lib/sparc-ork-elf/2.8.1/adalib/libgnat.a(g-hesora.o)
 .comment       0x00000318       0x12 /usr/local/openravenscar/lib/gcc-lib/sparc-ork-elf/2.8.1/adalib/libgnat.a(i-c.o)
 .comment       0x0000032a       0x12 /usr/local/openravenscar/lib/gcc-lib/sparc-ork-elf/2.8.1/adalib/libgnat.a(s-arit64.o)
 .comment       0x0000033c       0x12 /usr/local/openravenscar/lib/gcc-lib/sparc-ork-elf/2.8.1/adalib/libgnat.a(s-except.o)
 .comment       0x0000034e       0x12 /usr/local/openravenscar/lib/gcc-lib/sparc-ork-elf/2.8.1/adalib/libgnat.a(s-exctab.o)
 .comment       0x00000360       0x12 /usr/local/openravenscar/lib/gcc-lib/sparc-ork-elf/2.8.1/adalib/libgnat.a(s-exnflt.o)
 .comment       0x00000372       0x12 /usr/local/openravenscar/lib/gcc-lib/sparc-ork-elf/2.8.1/adalib/libgnat.a(s-fatflt.o)
 .comment       0x00000384       0x12 /usr/local/openravenscar/lib/gcc-lib/sparc-ork-elf/2.8.1/adalib/libgnat.a(s-finimp.o)
 .comment       0x00000396       0x12 /usr/local/openravenscar/lib/gcc-lib/sparc-ork-elf/2.8.1/adalib/libgnat.a(s-finroo.o)
 .comment       0x000003a8       0x12 /usr/local/openravenscar/lib/gcc-lib/sparc-ork-elf/2.8.1/adalib/libgnat.a(s-imgint.o)
 .comment       0x000003ba       0x12 /usr/local/openravenscar/lib/gcc-lib/sparc-ork-elf/2.8.1/adalib/libgnat.a(s-imgrea.o)
 .comment       0x000003cc       0x12 /usr/local/openravenscar/lib/gcc-lib/sparc-ork-elf/2.8.1/adalib/libgnat.a(s-imguns.o)
 .comment       0x000003de       0x12 /usr/local/openravenscar/lib/gcc-lib/sparc-ork-elf/2.8.1/adalib/libgnat.a(s-mastop.o)
 .comment       0x000003f0       0x12 /usr/local/openravenscar/lib/gcc-lib/sparc-ork-elf/2.8.1/adalib/libgnat.a(s-parame.o)
 .comment       0x00000402       0x12 /usr/local/openravenscar/lib/gcc-lib/sparc-ork-elf/2.8.1/adalib/libgnat.a(s-powtab.o)
 .comment       0x00000414       0x12 /usr/local/openravenscar/lib/gcc-lib/sparc-ork-elf/2.8.1/adalib/libgnat.a(s-secsta.o)
 .comment       0x00000426       0x12 /usr/local/openravenscar/lib/gcc-lib/sparc-ork-elf/2.8.1/adalib/libgnat.a(s-sopco3.o)
 .comment       0x00000438       0x12 /usr/local/openravenscar/lib/gcc-lib/sparc-ork-elf/2.8.1/adalib/libgnat.a(s-stache.o)
 .comment       0x0000044a       0x12 /usr/local/openravenscar/lib/gcc-lib/sparc-ork-elf/2.8.1/adalib/libgnat.a(s-stalib.o)
 .comment       0x0000045c       0x12 /usr/local/openravenscar/lib/gcc-lib/sparc-ork-elf/2.8.1/adalib/libgnat.a(s-stoele.o)
 .comment       0x0000046e       0x12 /usr/local/openravenscar/lib/gcc-lib/sparc-ork-elf/2.8.1/adalib/libgnat.a(s-stratt.o)
 .comment       0x00000480       0x12 /usr/local/openravenscar/lib/gcc-lib/sparc-ork-elf/2.8.1/adalib/libgnat.a(s-strops.o)
 .comment       0x00000492       0x12 /usr/local/openravenscar/lib/gcc-lib/sparc-ork-elf/2.8.1/adalib/libgnat.a(s-soflin.o)
 .comment       0x000004a4       0x12 /usr/local/openravenscar/lib/gcc-lib/sparc-ork-elf/2.8.1/adalib/libgnat.a(s-traceb.o)
 .comment       0x000004b6       0x12 /usr/local/openravenscar/lib/gcc-lib/sparc-ork-elf/2.8.1/adalib/libgnat.a(a-argv.o)
 .comment       0x000004c8       0x12 /usr/local/openravenscar/lib/gcc-lib/sparc-ork-elf/2.8.1/adalib/libgnat.a(a-cio.o)
 .comment       0x000004da       0x12 /usr/local/openravenscar/lib/gcc-lib/sparc-ork-elf/2.8.1/adalib/libgnat.a(a-exit.o)
 .comment       0x000004ec       0x12 /usr/local/openravenscar/lib/gcc-lib/sparc-ork-elf/2.8.1/adalib/libgnat.a(a-raise.o)
 .comment       0x000004fe       0x12 /usr/local/openravenscar/lib/gcc-lib/sparc-ork-elf/2.8.1/adalib/libgnat.a(a-init.o)
 .comment       0x00000510       0x12 /usr/local/openravenscar/lib/gcc-lib/sparc-ork-elf/2.8.1/adalib/libgnat.a(a-final.o)
 .comment       0x00000522       0x12 /usr/local/openravenscar/lib/gcc-lib/sparc-ork-elf/2.8.1/adalib/libgnat.a(s-fatllf.o)
 .comment       0x00000534       0x12 /usr/local/openravenscar/lib/gcc-lib/sparc-ork-elf/2.8.1/adalib/libgnat.a(s-imgllu.o)
 .comment       0x00000546       0x12 /usr/local/openravenscar/lib/gcc-lib/sparc-ork-elf/2.8.1/adalib/libgnat.a(a-adaint.o)
 .comment       0x00000558       0x12 /usr/local/openravenscar/sparc-ork-elf/lib/libm.a(s_atan.o)
 .comment       0x0000056a       0x12 /usr/local/openravenscar/sparc-ork-elf/lib/libm.a(s_cos.o)
 .comment       0x0000057c       0x12 /usr/local/openravenscar/sparc-ork-elf/lib/libm.a(s_fabs.o)
 .comment       0x0000058e       0x12 /usr/local/openravenscar/sparc-ork-elf/lib/libm.a(s_sin.o)
 .comment       0x000005a0       0x12 /usr/local/openravenscar/sparc-ork-elf/lib/libm.a(s_tan.o)
 .comment       0x000005b2       0x12 /usr/local/openravenscar/sparc-ork-elf/lib/libm.a(s_tanh.o)
 .comment       0x000005c4       0x12 /usr/local/openravenscar/sparc-ork-elf/lib/libm.a(w_acos.o)
 .comment       0x000005d6       0x12 /usr/local/openravenscar/sparc-ork-elf/lib/libm.a(w_asin.o)
 .comment       0x000005e8       0x12 /usr/local/openravenscar/sparc-ork-elf/lib/libm.a(w_exp.o)
 .comment       0x000005fa       0x12 /usr/local/openravenscar/sparc-ork-elf/lib/libm.a(w_log.o)
 .comment       0x0000060c       0x12 /usr/local/openravenscar/sparc-ork-elf/lib/libm.a(w_pow.o)
 .comment       0x0000061e       0x12 /usr/local/openravenscar/sparc-ork-elf/lib/libm.a(w_sqrt.o)
 .comment       0x00000630       0x12 /usr/local/openravenscar/sparc-ork-elf/lib/libm.a(e_acos.o)
 .comment       0x00000642       0x12 /usr/local/openravenscar/sparc-ork-elf/lib/libm.a(e_asin.o)
 .comment       0x00000654       0x12 /usr/local/openravenscar/sparc-ork-elf/lib/libm.a(e_exp.o)
 .comment       0x00000666       0x12 /usr/local/openravenscar/sparc-ork-elf/lib/libm.a(e_log.o)
 .comment       0x00000678       0x12 /usr/local/openravenscar/sparc-ork-elf/lib/libm.a(e_pow.o)
 .comment       0x0000068a       0x12 /usr/local/openravenscar/sparc-ork-elf/lib/libm.a(e_rem_pio2.o)
 .comment       0x0000069c       0x12 /usr/local/openravenscar/sparc-ork-elf/lib/libm.a(e_sqrt.o)
 .comment       0x000006ae       0x12 /usr/local/openravenscar/sparc-ork-elf/lib/libm.a(k_cos.o)
 .comment       0x000006c0       0x12 /usr/local/openravenscar/sparc-ork-elf/lib/libm.a(k_rem_pio2.o)
 .comment       0x000006d2       0x12 /usr/local/openravenscar/sparc-ork-elf/lib/libm.a(k_sin.o)
 .comment       0x000006e4       0x12 /usr/local/openravenscar/sparc-ork-elf/lib/libm.a(k_tan.o)
 .comment       0x000006f6       0x12 /usr/local/openravenscar/sparc-ork-elf/lib/libm.a(s_expm1.o)
 .comment       0x00000708       0x12 /usr/local/openravenscar/sparc-ork-elf/lib/libm.a(s_finite.o)
 .comment       0x0000071a       0x12 /usr/local/openravenscar/sparc-ork-elf/lib/libm.a(s_floor.o)
 .comment       0x0000072c       0x12 /usr/local/openravenscar/sparc-ork-elf/lib/libm.a(s_infconst.o)
 .comment       0x0000073e       0x12 /usr/local/openravenscar/sparc-ork-elf/lib/libm.a(s_isnan.o)
 .comment       0x00000750       0x12 /usr/local/openravenscar/sparc-ork-elf/lib/libm.a(s_lib_ver.o)
 .comment       0x00000762       0x12 /usr/local/openravenscar/sparc-ork-elf/lib/libm.a(s_matherr.o)
 .comment       0x00000774       0x12 /usr/local/openravenscar/sparc-ork-elf/lib/libm.a(s_rint.o)
 .comment       0x00000786       0x12 /usr/local/openravenscar/sparc-ork-elf/lib/libm.a(s_scalbn.o)
 .comment       0x00000798       0x12 /usr/local/openravenscar/sparc-ork-elf/lib/libm.a(s_copysign.o)
 .comment       0x000007aa       0x12 /usr/local/openravenscar/lib/gcc-lib/sparc-ork-elf/2.8.1/libgcc.a(__dummy.o)
 .comment       0x000007bc       0x12 /usr/local/openravenscar/lib/gcc-lib/sparc-ork-elf/2.8.1/libgcc.a(_ashldi3.o)
 .comment       0x000007ce       0x12 /usr/local/openravenscar/lib/gcc-lib/sparc-ork-elf/2.8.1/libgcc.a(_cmpdi2.o)
 .comment       0x000007e0       0x12 /usr/local/openravenscar/lib/gcc-lib/sparc-ork-elf/2.8.1/libgcc.a(_divdi3.o)
 .comment       0x000007f2       0x12 /usr/local/openravenscar/lib/gcc-lib/sparc-ork-elf/2.8.1/libgcc.a(_fixsfdi.o)
 .comment       0x00000804       0x12 /usr/local/openravenscar/lib/gcc-lib/sparc-ork-elf/2.8.1/libgcc.a(_fixunsdfdi.o)
 .comment       0x00000816       0x12 /usr/local/openravenscar/lib/gcc-lib/sparc-ork-elf/2.8.1/libgcc.a(_fixunssfdi.o)
 .comment       0x00000828       0x12 /usr/local/openravenscar/lib/gcc-lib/sparc-ork-elf/2.8.1/libgcc.a(_floatdidf.o)
 .comment       0x0000083a       0x12 /usr/local/openravenscar/lib/gcc-lib/sparc-ork-elf/2.8.1/libgcc.a(_floatdisf.o)
 .comment       0x0000084c       0x12 /usr/local/openravenscar/lib/gcc-lib/sparc-ork-elf/2.8.1/libgcc.a(_lshrdi3.o)
 .comment       0x0000085e       0x12 /usr/local/openravenscar/lib/gcc-lib/sparc-ork-elf/2.8.1/libgcc.a(_muldi3.o)
 .comment       0x00000870       0x12 /usr/local/openravenscar/lib/gcc-lib/sparc-ork-elf/2.8.1/libgcc.a(_udivdi3.o)
 .comment       0x00000882       0x12 /usr/local/openravenscar/lib/gcc-lib/sparc-ork-elf/2.8.1/libgcc.a(_umoddi3.o)
 .comment       0x00000894       0x12 /usr/local/openravenscar/lib/gcc-lib/sparc-ork-elf/2.8.1/libgcc.a(frame.o)
 .comment       0x000008a6       0x12 /usr/local/openravenscar/sparc-ork-elf/lib/libc.a(abort.o)
 .comment       0x000008b8       0x12 /usr/local/openravenscar/sparc-ork-elf/lib/libc.a(atoi.o)
 .comment       0x000008ca       0x12 /usr/local/openravenscar/sparc-ork-elf/lib/libc.a(errno.o)
 .comment       0x000008dc       0x12 /usr/local/openravenscar/sparc-ork-elf/lib/libc.a(exit.o)
 .comment       0x000008ee       0x12 /usr/local/openravenscar/sparc-ork-elf/lib/libc.a(fputc.o)
 .comment       0x00000900       0x12 /usr/local/openravenscar/sparc-ork-elf/lib/libc.a(getenv.o)
 .comment       0x00000912       0x12 /usr/local/openravenscar/sparc-ork-elf/lib/libc.a(getenv_r.o)
 .comment       0x00000924       0x12 /usr/local/openravenscar/sparc-ork-elf/lib/libc.a(gmtime.o)
 .comment       0x00000936       0x12 /usr/local/openravenscar/sparc-ork-elf/lib/libc.a(impure.o)
 .comment       0x00000948       0x12 /usr/local/openravenscar/sparc-ork-elf/lib/libc.a(lcltime.o)
 .comment       0x0000095a       0x12 /usr/local/openravenscar/sparc-ork-elf/lib/libc.a(lcltime_r.o)
 .comment       0x0000096c       0x12 /usr/local/openravenscar/sparc-ork-elf/lib/libc.a(malloc.o)
 .comment       0x0000097e       0x12 /usr/local/openravenscar/sparc-ork-elf/lib/libc.a(mallocr.o)
 .comment       0x00000990       0x12 /usr/local/openravenscar/sparc-ork-elf/lib/libc.a(memcmp.o)
 .comment       0x000009a2       0x12 /usr/local/openravenscar/sparc-ork-elf/lib/libc.a(memcpy.o)
 .comment       0x000009b4       0x12 /usr/local/openravenscar/sparc-ork-elf/lib/libc.a(memset.o)
 .comment       0x000009c6       0x12 /usr/local/openravenscar/sparc-ork-elf/lib/libc.a(mlock.o)
 .comment       0x000009d8       0x12 /usr/local/openravenscar/sparc-ork-elf/lib/libc.a(printf.o)
 .comment       0x000009ea       0x12 /usr/local/openravenscar/sparc-ork-elf/lib/libc.a(realloc.o)
 .comment       0x000009fc       0x12 /usr/local/openravenscar/sparc-ork-elf/lib/libc.a(reallocr.o)
 .comment       0x00000a0e       0x12 /usr/local/openravenscar/sparc-ork-elf/lib/libc.a(rget.o)
 .comment       0x00000a20       0x12 /usr/local/openravenscar/sparc-ork-elf/lib/libc.a(sbrkr.o)
 .comment       0x00000a32       0x12 /usr/local/openravenscar/sparc-ork-elf/lib/libc.a(scanf.o)
 .comment       0x00000a44       0x12 /usr/local/openravenscar/sparc-ork-elf/lib/libc.a(signal.o)
 .comment       0x00000a56       0x12 /usr/local/openravenscar/sparc-ork-elf/lib/libc.a(signalr.o)
 .comment       0x00000a68       0x12 /usr/local/openravenscar/sparc-ork-elf/lib/libc.a(sprintf.o)
 .comment       0x00000a7a       0x12 /usr/local/openravenscar/sparc-ork-elf/lib/libc.a(strcat.o)
 .comment       0x00000a8c       0x12 /usr/local/openravenscar/sparc-ork-elf/lib/libc.a(strcmp.o)
 .comment       0x00000a9e       0x12 /usr/local/openravenscar/sparc-ork-elf/lib/libc.a(strcpy.o)
 .comment       0x00000ab0       0x12 /usr/local/openravenscar/sparc-ork-elf/lib/libc.a(strlen.o)
 .comment       0x00000ac2       0x12 /usr/local/openravenscar/sparc-ork-elf/lib/libc.a(strncmp.o)
 .comment       0x00000ad4       0x12 /usr/local/openravenscar/sparc-ork-elf/lib/libc.a(strncpy.o)
 .comment       0x00000ae6       0x12 /usr/local/openravenscar/sparc-ork-elf/lib/libc.a(strstr.o)
 .comment       0x00000af8       0x12 /usr/local/openravenscar/sparc-ork-elf/lib/libc.a(strtol.o)
 .comment       0x00000b0a       0x12 /usr/local/openravenscar/sparc-ork-elf/lib/libc.a(vfprintf.o)
 .comment       0x00000b1c       0x12 /usr/local/openravenscar/sparc-ork-elf/lib/libc.a(vfscanf.o)
 .comment       0x00000b2e       0x12 /usr/local/openravenscar/sparc-ork-elf/lib/libc.a(wbuf.o)
 .comment       0x00000b40       0x12 /usr/local/openravenscar/sparc-ork-elf/lib/libc.a(wsetup.o)
 .comment       0x00000b52       0x12 /usr/local/openravenscar/sparc-ork-elf/lib/libc.a(atof.o)
 .comment       0x00000b64       0x12 /usr/local/openravenscar/sparc-ork-elf/lib/libc.a(ctype_.o)
 .comment       0x00000b76       0x12 /usr/local/openravenscar/sparc-ork-elf/lib/libc.a(dtoa.o)
 .comment       0x00000b88       0x12 /usr/local/openravenscar/sparc-ork-elf/lib/libc.a(environ.o)
 .comment       0x00000b9a       0x12 /usr/local/openravenscar/sparc-ork-elf/lib/libc.a(envlock.o)
 .comment       0x00000bac       0x12 /usr/local/openravenscar/sparc-ork-elf/lib/libc.a(fflush.o)
 .comment       0x00000bbe       0x12 /usr/local/openravenscar/sparc-ork-elf/lib/libc.a(findfp.o)
 .comment       0x00000bd0       0x12 /usr/local/openravenscar/sparc-ork-elf/lib/libc.a(fread.o)
 .comment       0x00000be2       0x12 /usr/local/openravenscar/sparc-ork-elf/lib/libc.a(freer.o)
 .comment       0x00000bf4       0x12 /usr/local/openravenscar/sparc-ork-elf/lib/libc.a(fvwrite.o)
 .comment       0x00000c06       0x12 /usr/local/openravenscar/sparc-ork-elf/lib/libc.a(fwalk.o)
 .comment       0x00000c18       0x12 /usr/local/openravenscar/sparc-ork-elf/lib/libc.a(locale.o)
 .comment       0x00000c2a       0x12 /usr/local/openravenscar/sparc-ork-elf/lib/libc.a(makebuf.o)
 .comment       0x00000c3c       0x12 /usr/local/openravenscar/sparc-ork-elf/lib/libc.a(mbtowc_r.o)
 .comment       0x00000c4e       0x12 /usr/local/openravenscar/sparc-ork-elf/lib/libc.a(memchr.o)
 .comment       0x00000c60       0x12 /usr/local/openravenscar/sparc-ork-elf/lib/libc.a(memmove.o)
 .comment       0x00000c72       0x12 /usr/local/openravenscar/sparc-ork-elf/lib/libc.a(mprec.o)
 .comment       0x00000c84       0x12 /usr/local/openravenscar/sparc-ork-elf/lib/libc.a(refill.o)
 .comment       0x00000c96       0x12 /usr/local/openravenscar/sparc-ork-elf/lib/libc.a(s_isinf.o)
 .comment       0x00000ca8       0x12 /usr/local/openravenscar/sparc-ork-elf/lib/libc.a(stdio.o)
 .comment       0x00000cba       0x12 /usr/local/openravenscar/sparc-ork-elf/lib/libc.a(strtod.o)
 .comment       0x00000ccc       0x12 /usr/local/openravenscar/sparc-ork-elf/lib/libc.a(strtoul.o)
 .comment       0x00000cde       0x12 /usr/local/openravenscar/sparc-ork-elf/lib/libc.a(ungetc.o)
 .comment       0x00000cf0       0x12 /usr/local/openravenscar/sparc-ork-elf/lib/libc.a(writer.o)
 .comment       0x00000d02       0x12 /usr/local/openravenscar/sparc-ork-elf/lib/libc.a(callocr.o)
 .comment       0x00000d14       0x12 /usr/local/openravenscar/sparc-ork-elf/lib/libc.a(closer.o)
 .comment       0x00000d26       0x12 /usr/local/openravenscar/sparc-ork-elf/lib/libc.a(fstatr.o)
 .comment       0x00000d38       0x12 /usr/local/openravenscar/sparc-ork-elf/lib/libc.a(lseekr.o)
 .comment       0x00000d4a       0x12 /usr/local/openravenscar/sparc-ork-elf/lib/libc.a(readr.o)
 .comment       0x00000d5c       0x12 /usr/local/openravenscar/sparc-ork-elf/lib/libork.a(ada_exceptions.o)
 .comment       0x00000d6e       0x12 /usr/local/openravenscar/sparc-ork-elf/lib/libork.a(close.o)
 .comment       0x00000d80       0x12 /usr/local/openravenscar/sparc-ork-elf/lib/libork.a(execv.o)
 .comment       0x00000d92       0x12 /usr/local/openravenscar/sparc-ork-elf/lib/libork.a(fork.o)
 .comment       0x00000da4       0x12 /usr/local/openravenscar/sparc-ork-elf/lib/libork.a(fstat.o)
 .comment       0x00000db6       0x12 /usr/local/openravenscar/sparc-ork-elf/lib/libork.a(getcwd.o)
 .comment       0x00000dc8       0x12 /usr/local/openravenscar/sparc-ork-elf/lib/libork.a(getpid.o)
 .comment       0x00000dda       0x12 /usr/local/openravenscar/sparc-ork-elf/lib/libork.a(isatty.o)
 .comment       0x00000dec       0x12 /usr/local/openravenscar/sparc-ork-elf/lib/libork.a(kill.o)
 .comment       0x00000dfe       0x12 /usr/local/openravenscar/sparc-ork-elf/lib/libork.a(link.o)
 .comment       0x00000e10       0x12 /usr/local/openravenscar/sparc-ork-elf/lib/libork.a(lseek.o)
 .comment       0x00000e22       0x12 /usr/local/openravenscar/sparc-ork-elf/lib/libork.a(open.o)
 .comment       0x00000e34       0x12 /usr/local/openravenscar/sparc-ork-elf/lib/libork.a(read.o)
 .comment       0x00000e46       0x12 /usr/local/openravenscar/sparc-ork-elf/lib/libork.a(readdir.o)
 .comment       0x00000e58       0x12 /usr/local/openravenscar/sparc-ork-elf/lib/libork.a(mkdir.o)
 .comment       0x00000e6a       0x12 /usr/local/openravenscar/sparc-ork-elf/lib/libork.a(sbrk.o)
 .comment       0x00000e7c       0x12 /usr/local/openravenscar/sparc-ork-elf/lib/libork.a(stat.o)
 .comment       0x00000e8e       0x12 /usr/local/openravenscar/sparc-ork-elf/lib/libork.a(uart.o)
 .comment       0x00000ea0       0x12 /usr/local/openravenscar/sparc-ork-elf/lib/libork.a(unlink.o)
 .comment       0x00000eb2       0x12 /usr/local/openravenscar/sparc-ork-elf/lib/libork.a(wait.o)
 .comment       0x00000ec4       0x12 /usr/local/openravenscar/sparc-ork-elf/lib/libork.a(write.o)
